(dp0
S'AGO'
p1
I2304
sS'LIFE'
p2
I489
sS'EVERYONE'
p3
I1793
sS'JOHNNY'
p4
I1491
sS'TEASE'
p5
I1427
sS'AUDIENCE'
p6
I2199
sS'EXPLAIN'
p7
I393
sS'PRETEND'
p8
I888
sS'ERIN'
p9
I2984
sS'EFFORT'
p10
I885
sS'ERIC'
p11
I2986
sS'AMONG'
p12
I1252
sS'CRACKON'
p13
I0
sS'CHRISTIAN'
p14
I1615
sS'POWER'
p15
I1414
sS'DISAPPOINTED'
p16
I1383
sS'AGH'
p17
I1481
sS'TINY'
p18
I482
sS'DETONATE'
p19
I849
sS'MUCH'
p20
I484
sS'BRUSH'
p21
I2943
sS'TRANSLATION'
p22
I1880
sS'INSPECTION'
p23
I2365
sS'AGE'
p24
I2309
sS'SOMEBODYS'
p25
I161
sS'CHASE'
p26
I2098
sS'FLICK'
p27
I1588
sS'ENDS'
p28
I2757
sS'LATER'
p29
I1147
sS'BANDERAS'
p30
I49
sS'NATURE'
p31
I1487
sS'WINNIE'
p32
I471
sS'TWISTED'
p33
I302
sS'HAND'
p34
I544
sS'FROWNING'
p35
I411
sS'CHRIS'
p36
I1532
sS'GO'
p37
I2329
sS'TWISTER'
p38
I309
sS'TORSO'
p39
I1485
sS'GI'
p40
I2332
sS'REMOTLY'
p41
I94
sS'EMOTION'
p42
I1046
sS'ROMANCE'
p43
I2833
sS'DOWENY'
p44
I0
sS'MAY'
p45
I919
sS'MAX'
p46
I920
sS'RUIN'
p47
I1957
sS'SCREAM'
p48
I372
sS'TERRIFIC'
p49
I1121
sS'PERSON'
p50
I2128
sS'NEAR'
p51
I503
sS'NEAT'
p52
I504
sS'MAD'
p53
I924
sS'TELLING'
p54
I2350
sS'MAN'
p55
I931
sS'CHOREOGRAPHY'
p56
I1347
sS'ATLANTIS'
p57
I2255
sS'NORMAL'
p58
I1131
sS'COMPLAINING'
p59
I165
sS'CONTINUATION'
p60
I1255
sS'BANTER'
p61
I2115
sS'POSSE'
p62
I2750
sS'TIRING'
p63
I2070
sS'BED'
p64
I2642
sS'FIGURES'
p65
I2774
sS'STARRING'
p66
I648
sS'AFRICAN'
p67
I941
sS'BIOTIC'
p68
I133
sS'LOPEZ'
p69
I1233
sS'BET'
p70
I2648
sS'JUMPY'
p71
I2207
sS'ADJUSTEMENT'
p72
I352
sS'COMPARED'
p73
I2987
sS'FINSIH'
p74
I988
sS'KEIRA'
p75
I1471
sS'COMMON'
p76
I2580
sS'BIRD'
p77
I2385
sS'GRU'
p78
I2280
sS'TONE'
p79
I470
sS'GLORY'
p80
I2972
sS'SEQUENCE'
p81
I2896
sS'EXOPECTING'
p82
I0
sS'SOLD'
p83
I2014
sS'DOSNT'
p84
I2545
sS'APPEALING'
p85
I2644
sS'WOMAN'
p86
I1569
sS'ALSOUM'
p87
I0
sS'UNDER'
p88
I22
sS'LAST'
p89
I2024
sS'100'
p90
I78
sS'SICKO'
p91
I1542
sS'AGIAN'
p92
I2958
sS'NON'
p93
I972
sS'NICER'
p94
I478
sS'CHUCKLED'
p95
I2889
sS'MATCHES'
p96
I2834
sS'CONTROLS'
p97
I2704
sS'THEYRE'
p98
I610
sS'CHUCKLES'
p99
I992
sS'STUNNING'
p100
I2818
sS'WOODS'
p101
I7
sS'FOURTH'
p102
I2533
sS'THINGS'
p103
I199
sS'NOT'
p104
I977
sS'WOODY'
p105
I10
sS'NOV'
p106
I978
sS'NOW'
p107
I979
sS'LAUGHTER'
p108
I2406
sS'NOR'
p109
I982
sS'EXPECT'
p110
I1805
sS'VIEWINGS'
p111
I69
sS'INTERESTING'
p112
I962
sS'FUCK'
p113
I902
sS'ELEMENTS'
p114
I2296
sS'AMBITIOUS'
p115
I736
sS'POPULAR'
p116
I2182
sS'SMILE'
p117
I1565
sS'HOLLYWOOD'
p118
I308
sS'BLUE'
p119
I543
sS'DOING'
p120
I2555
sS'CAGE'
p121
I343
sS'DROP'
p122
I991
sS'WHI'
p123
I2670
sS'INVOLVING'
p124
I359
sS'BASICALLY'
p125
I1666
sS'TABLE'
p126
I2788
sS'SPARK'
p127
I1231
sS'WHY'
p128
I2675
sS'ORLEANS'
p129
I388
sS'DIFFERENT'
p130
I1303
sS'EXPECTAIONS'
p131
I1142
sS'PERSONALITES'
p132
I566
sS'LOUIS'
p133
I1584
sS'AVERAGE'
p134
I1146
sS'OVERWHELMINGLY'
p135
I2801
sS'ELEMENT'
p136
I2510
sS'99'
p137
I128
sS'UNPREDICTABLE'
p138
I2908
sS'GOODE'
p139
I2225
sS'90'
p140
I134
sS'STATEMENTS'
p141
I666
sS'GLASSES'
p142
I2553
sS'EVEN'
p143
I57
sS'DEADPOOL'
p144
I2101
sS'1997'
p145
I143
sS'WHENEVER'
p146
I935
sS'PROFOUND'
p147
I2543
sS'CREEPY'
p148
I1625
sS'EARLY'
p149
I1377
sS'WOODEN'
p150
I1179
sS'WESTERN'
p151
I313
sS'WIDELY'
p152
I2107
sS'MAKING'
p153
I893
sS'EVER'
p154
I65
sS'NOTICE'
p155
I1220
sS'CONSTANTLY'
p156
I680
sS'THRILLING'
p157
I1755
sS'LOT'
p158
I1463
sS'CURRENTLY'
p159
I2004
sS'SPARKLY'
p160
I1550
sS'DAVID'
p161
I159
sS'80S'
p162
I535
sS'GOSLING'
p163
I1040
sS'THIRTEEN'
p164
I2560
sS'CHARACTERS'
p165
I287
sS'JENA'
p166
I674
sS'PEES'
p167
I858
sS'MOON'
p168
I1408
sS'HIDEOUS'
p169
I1567
sS'LA'
p170
I2525
sS'THEMATICALLY'
p171
I1681
sS'ONE'
p172
I1052
sS'PRESENTS'
p173
I19
sS'FLYNN'
p174
I2957
sS'BIHIND'
p175
I0
sS'REACHED'
p176
I2613
sS'GIVES'
p177
I1074
sS'LATEST'
p178
I2858
sS'A'
p179
I1728
sS'FICHTNER'
p180
I0
sS'HEAD'
p181
I691
sS'UP'
p182
I2267
sS'WOULD'
p183
I111
sS'BADLY'
p184
I176
sS'WIPED'
p185
I1647
sS'LITTLE'
p186
I1063
sS'ANTS'
p187
I1380
sS'FORD'
p188
I697
sS'WOLVERINE'
p189
I1815
sS'SURREAL'
p190
I2993
sS'MUSIC'
p191
I115
sS'DEVICE'
p192
I2673
sS'WANTING'
p193
I601
sS'EXCITING'
p194
I1421
sS'SMART'
p195
I2079
sS'FISHBURNE'
p196
I1656
sS'CURRENT'
p197
I828
sS'YEHA'
p198
I2219
sS'STOMACH'
p199
I2628
sS'TASTE'
p200
I1493
sS'LOOSE'
p201
I1617
sS'INSTANCES'
p202
I1851
sS'CALL'
p203
I687
sS'ANYWAYS'
p204
I1204
sS'ANIMAL'
p205
I2491
sS'WALLY'
p206
I1772
sS'NERVES'
p207
I2890
sS'PASSIONATE'
p208
I1394
sS'CARTOON'
p209
I1328
sS'RAISING'
p210
I2263
sS'UNUSUAL'
p211
I1263
sS'CHASING'
p212
I2507
sS'PEOPLE'
p213
I618
sS'ABBY'
p214
I966
sS'STYLIZED'
p215
I1082
sS'PREJUDICE'
p216
I1838
sS'BOILER'
p217
I545
sS'ALTHOUGH'
p218
I2920
sS'HORRENDOUS'
p219
I432
sS'ASASSIN'
p220
I200
sS'TRADITIONL'
p221
I0
sS'HAMM'
p222
I1304
sS'TRUE'
p223
I701
sS'CAREERS'
p224
I1368
sS'HEAVY'
p225
I1792
sS'RELY'
p226
I677
sS'SCHREIBER'
p227
I426
sS'SAM'
p228
I1102
sS'JUMPED'
p229
I1210
sS'SAD'
p230
I1106
sS'SOURCE'
p231
I2154
sS'SAY'
p232
I1107
sS'DANIEL'
p233
I257
sS'JOE'
p234
I2762
sS'OVERBOARD'
p235
I1997
sS'CHILLS'
p236
I2602
sS'SAW'
p237
I1114
sS'JON'
p238
I2765
sS'SAT'
p239
I1117
sS'DOUCHEBAG'
p240
I1405
sS'FELT'
p241
I742
sS'MIDNIGHT'
p242
I953
sS'CONFUSED'
p243
I2451
sS'BALANCES'
p244
I669
sS'HIGH'
p245
I2476
sS'9'
p246
I2108
sS'FELL'
p247
I745
sS'TROUP'
p248
I2915
sS'ISSUE'
p249
I1820
sS'STRINGS'
p250
I3013
sS'MEMBORABLE'
p251
I0
sS'LACKS'
p252
I1702
sS'CASTING'
p253
I522
sS'COOLER'
p254
I607
sS'ATTACHED'
p255
I706
sS'SLAVISH'
p256
I1638
sS'COMPELLING'
p257
I216
sS'STICH'
p258
I1667
sS'MONEY'
p259
I1350
sS'TALKS'
p260
I54
sS'BRAND'
p261
I2960
sS'APART'
p262
I605
sS'HORSE'
p263
I1858
sS'EXPRESS'
p264
I1966
sS'HEADS'
p265
I1859
sS'DEPPS'
p266
I1426
sS'CONCERNED'
p267
I2334
sS'SOME'
p268
I2187
sS'GOOD'
p269
I1298
sS'GREATNESS'
p270
I685
sS'DESERT'
p271
I2303
sS'VE'
p272
I2823
sS'BEGIN'
p273
I1127
sS'DRASTICALLY'
p274
I1157
sS'LONGER'
p275
I753
sS'DEVELOPING'
p276
I1280
sS'BUSTS'
p277
I999
sS'SHARE'
p278
I1696
sS'STABILIZE'
p279
I987
sS'SOCIETY'
p280
I2558
sS'BLAND'
p281
I1854
sS'TEMPLE'
p282
I805
sS'WHITNESSING'
p283
I0
sS'RICK'
p284
I2443
sS'LIEB'
p285
I664
sS'CHEESE'
p286
I1047
sS'UNLESS'
p287
I2667
sS'MEDIO'
p288
I1306
sS'YOUNG'
p289
I2336
sS'MEDIA'
p290
I1735
sS'SCARED'
p291
I2897
sS'POSSIBLE'
p292
I597
sS'FOREMOST'
p293
I410
sS'POSSIBLY'
p294
I599
sS'LIEV'
p295
I673
sS'DETAILS'
p296
I2995
sS'W'
p297
I1840
sS'TWILIGHT'
p298
I980
sS'CHEESY'
p299
I1060
sS'BIGGER'
p300
I1367
sS'ANYTHING'
p301
I2220
sS'MCGRAGGOR'
p302
I0
sS'SCRIPT'
p303
I1861
sS'CREW'
p304
I1258
sS'BIZZARE'
p305
I6
sS'AMERICAN'
p306
I1836
sS'LAUGHING'
p307
I1391
sS'TIME'
p308
I756
sS'WATCHED'
p309
I1504
sS'HAPPENED'
p310
I970
sS'EVERYBODY'
p311
I860
sS'IMPRESSED'
p312
I2242
sS'WORK'
p313
I815
sS'FFFFLAT'
p314
I0
sS'WORKING'
p315
I863
sS'ANNOYINGLY'
p316
I1742
sS'TRAVELED'
p317
I1850
sS'TENSED'
p318
I1378
sS'BEINGS'
p319
I672
sS'DESCRIBES'
p320
I2054
sS'SILLY'
p321
I322
sS'UNFORTUNATE'
p322
I534
sS'AIDS'
p323
I246
sS'RUINED'
p324
I708
sS'MIGHT'
p325
I1760
sS'WHITE'
p326
I1072
sS'LAND'
p327
I2809
sS'JUSTIN'
p328
I2926
sS'HEAVILY'
p329
I2861
sS'WASNT'
p330
I1896
sS'GUGINO'
p331
I451
sS'VEERS'
p332
I363
sS'SMACK'
p333
I30
sS'CONVINCE'
p334
I2979
sS'HADNT'
p335
I315
sS'BELIEVE'
p336
I1881
sS'ONCE'
p337
I2322
sS'HAPPENS'
p338
I2905
sS'STEWARDS'
p339
I1823
sS'PATRICK'
p340
I1387
sS'SHIA'
p341
I716
sS'PERCENT'
p342
I2990
sS'D'
p343
I2176
sS'POSSUMS'
p344
I869
sS'GOODMAN'
p345
I1122
sS'LAUGHED'
p346
I2167
sS'GUARDIANS'
p347
I1246
sS'MEDIOCRE'
p348
I1302
sS'PIECE'
p349
I2982
sS'BLEND'
p350
I1941
sS'SHIT'
p351
I723
sS'WAIT'
p352
I841
sS'SPAN'
p353
I2244
sS'REDEEMED'
p354
I2265
sS'TWENTY'
p355
I1863
sS'CHASED'
p356
I290
sS'OVERLY'
p357
I1407
sS'SOCI'
p358
I2247
sS'BREAK'
p359
I223
sS'CLOWNS'
p360
I1198
sS'CRYING'
p361
I2156
sS'AWFUL'
p362
I1579
sS'PULLS'
p363
I1640
sS'SPEED'
p364
I2002
sS'TUG'
p365
I1234
sS'KISSINGS'
p366
I2650
sS'BEN'
p367
I2639
sS'MOGADORIANS'
p368
I0
sS'WASIT'
p369
I2168
sS'COMPLAINTS'
p370
I671
sS'FINISHED'
p371
I2803
sS'HERO'
p372
I433
sS'THROUGHOUT'
p373
I2047
sS'GUY'
p374
I811
sS'ROMCOM'
p375
I777
sS'SCENERY'
p376
I2388
sS'XXXOF'
p377
I0
sS'EXPANDABLES'
p378
I1616
sS'INTERACT'
p379
I1864
sS'EXPLAINED'
p380
I99
sS'MISSES'
p381
I1816
sS'POP'
p382
I1852
sS'RENDOM'
p383
I1683
sS'RACE'
p384
I2362
sS'TERRIFYING'
p385
I1071
sS'LOOPS'
p386
I1806
sS'IMAGINARY'
p387
I2922
sS'CAME'
p388
I373
sS'PREVENT'
p389
I813
sS'SKIP'
p390
I765
sS'DOMINATED'
p391
I1818
sS'SKIN'
p392
I771
sS'MILO'
p393
I773
sS'MILL'
p394
I774
sS'OLSO'
p395
I2302
sS'APPARENTLY'
p396
I2656
sS'UNLIKABLE'
p397
I2933
sS'MESS'
p398
I180
sS'IMPRESSIVE'
p399
I799
sS'SKILLS'
p400
I39
sS'TIMBERLAKE'
p401
I348
sS'DUDE'
p402
I866
sS'CREATIVE'
p403
I633
sS'FEELS'
p404
I1968
sS'UNVOLVING'
p405
I0
sS'TIMBERLAKES'
p406
I1500
sS'SIXTEEN'
p407
I227
sS'DECISIONS'
p408
I1555
sS'FACT'
p409
I2686
sS'NICE'
p410
I1169
sS'SHOOT'
p411
I784
sS'KATY'
p412
I2323
sS'ATMOSPHERE'
p413
I2687
sS'FOLLOWED'
p414
I1633
sS'JOURNEY'
p415
I1431
sS'PAY'
p416
I1307
sS'THINGSUM'
p417
I0
sS'SLOWED'
p418
I820
sS'LEGACY'
p419
I2740
sS'KATO'
p420
I2328
sS'ALRIGHT'
p421
I1541
sS'SORRY'
p422
I24
sS'STEAK'
p423
I423
sS'REVEALED'
p424
I929
sS'KATE'
p425
I2331
sS'SUSPENSFUL'
p426
I459
sS'WONT'
p427
I983
sS'TALKING'
p428
I336
sS'NAIVE'
p429
I124
sS'DOLL'
p430
I1399
sS'LIVE'
p431
I870
sS'CAMERA'
p432
I2440
sS'ENJOYING'
p433
I1566
sS'CLOSURE'
p434
I1189
sS'KNOWING'
p435
I2010
sS'CERTAINLY'
p436
I779
sS'SIGH'
p437
I819
sS'BRIEF'
p438
I1606
sS'WEL'
p439
I2871
sS'REALY'
p440
I350
sS'JOKES'
p441
I1196
sS'CULT'
p442
I76
sS'WHERE'
p443
I1036
sS'FINDS'
p444
I2032
sS'POORLY'
p445
I13
sS'DARK'
p446
I2123
sS'TOTALLY'
p447
I1327
sS'STRAIGHT'
p448
I2073
sS'CLEARLY'
p449
I2657
sS'PROVKING'
p450
I0
sS'ZELLWEGGER'
p451
I0
sS'RUMPELSTILTSKIN'
p452
I884
sS'HARDLY'
p453
I1270
sS'PANDA'
p454
I56
sS'TOUCHING'
p455
I975
sS'JACKSON'
p456
I1010
sS'SUCK'
p457
I928
sS'OLDEST'
p458
I59
sS'ANYHOW'
p459
I2590
sS'IDENTICAL'
p460
I2879
sS'STRESS'
p461
I932
sS'INVENTIVE'
p462
I2734
sS'SCREAMS'
p463
I70
sS'TRAPPED'
p464
I1873
sS'SECONDS'
p465
I1415
sS'UNIVERSE'
p466
I2928
sS'RIDE'
p467
I2463
sS'HIGHTS'
p468
I1458
sS'BUT'
p469
I2962
sS'THAN'
p470
I1087
sS'OWNERSHIP'
p471
I546
sS'EXPRESSION'
p472
I1333
sS'COMIC'
p473
I296
sS'SACRIFIZING'
p474
I0
sS'RIDICULOUSLY'
p475
I2162
sS'TOUCHES'
p476
I389
sS'FINISH'
p477
I1321
sS'LOVE'
p478
I853
sS'SPECTACLE'
p479
I1110
sS'SUGAR'
p480
I396
sS'THEME'
p481
I397
sS'COMMAND'
p482
I2855
sS'HALF'
p483
I976
sS'SEXY'
p484
I2402
sS'SALVATION'
p485
I2415
sS'UNTIL'
p486
I120
sS'TRAILER'
p487
I1790
sS'CLOSER'
p488
I2743
sS'CHARLOTTE'
p489
I1894
sS'HITS'
p490
I2767
sS'FINANCIAL'
p491
I238
sS'SURVIVING'
p492
I1050
sS'BRUCE'
p493
I355
sS'SITUATIONS'
p494
I392
sS'TEENAGERS'
p495
I2652
sS'MOVIES'
p496
I149
sS'COMPLICATED'
p497
I1028
sS'ALONE'
p498
I838
sS'MOB'
p499
I2144
sS'ALONG'
p500
I840
sS'POMPOUS'
p501
I2540
sS'OBVOIOUS'
p502
I0
sS'BETTY'
p503
I2548
sS'ANTONIO'
p504
I2852
sS'HATHAWAY'
p505
I2554
sS'DO'
p506
I404
sS'ANGRY'
p507
I865
sS'HENRY'
p508
I150
sS'COMMERCIAL'
p509
I2393
sS'EMPOWERMENT'
p510
I652
sS'WRITING'
p511
I213
sS'BLE'
p512
I1017
sS'GARFIELD'
p513
I1901
sS'ULTMATELLY'
p514
I0
sS'POLISHED'
p515
I2938
sS'FALLING'
p516
I832
sS'PERSONALITY'
p517
I402
sS'WHATRE'
p518
I2069
sS'APPEARANCES'
p519
I2840
sS'CAPTAIN'
p520
I11
sS'CORNY'
p521
I337
sS'WERE'
p522
I1099
sS'EXTREMELY'
p523
I1929
sS'WITHDRAWN'
p524
I2790
sS'EXERCISE'
p525
I2386
sS'LIKES'
p526
I2044
sS'SORT'
p527
I2444
sS'AGUILERAS'
p528
I0
sS'CO'
p529
I2779
sS'NEMO'
p530
I901
sS'ZERO'
p531
I1595
sS'USAUALLY'
p532
I247
sS'163'
p533
I498
sS'COLUMBOS'
p534
I0
sS'MAJOR'
p535
I1844
sS'APPEAR'
p536
I826
sS'JIJOE'
p537
I0
sS'CONGRATULATIONS'
p538
I702
sS'CERTAIN'
p539
I1494
sS'BOWL'
p540
I1310
sS'DEPTH'
p541
I2313
sS'HONEST'
p542
I1037
sS'FREAKED'
p543
I1444
sS'BENDER'
p544
I873
sS'DESPITE'
p545
I413
sS'NETWORK'
p546
I250
sS'BLACK'
p547
I1176
sS'APPEAL'
p548
I833
sS'REDEEMING'
p549
I1402
sS'CHUCKLE'
p550
I1601
sS'ENJOYE'
p551
I1161
sS'RENEE'
p552
I272
sS'RONAN'
p553
I1675
sS'SHOULDNT'
p554
I1715
sS'DEADPAN'
p555
I439
sS'HATED'
p556
I2151
sS'ICONIC'
p557
I1419
sS'SHORTER'
p558
I2104
sS'MATTHEW'
p559
I1756
sS'LOW'
p560
I1462
sS'TRIPLE'
p561
I153
sS'LEARN'
p562
I1688
sS'DAMON'
p563
I1315
sS'RENTAL'
p564
I228
sS'DICKENSONIAN'
p565
I0
sS'PIZZA'
p566
I175
sS'MCGREGGOR'
p567
I0
sS'PARANOID'
p568
I1956
sS'MOMS'
p569
I973
sS'SPEECH'
p570
I1314
sS'ANOTHER'
p571
I294
sS'CHARISMATIC'
p572
I1259
sS'BURN'
p573
I644
sS'CARRIED'
p574
I2458
sS'INAPPROPRIATE'
p575
I438
sS'PERFORMANCE'
p576
I1125
sS'ACCORDING'
p577
I1240
sS'BELIEVED'
p578
I892
sS'EVIL'
p579
I268
sS'FEMALE'
p580
I2944
sS'87TH'
p581
I1299
sS'BADASS'
p582
I3008
sS'SELLS'
p583
I1112
sS'INTRODUCED'
p584
I2931
sS'MISSED'
p585
I1812
sS'PUSHING'
p586
I2392
sS'FOCUS'
p587
I767
sS'ICANDY'
p588
I2832
sS'WEITZ'
p589
I556
sS'FRANCHISE'
p590
I1248
sS'COSTNER'
p591
I1054
sS'TRUST'
p592
I476
sS'DRY'
p593
I82
sS'SUPPORTING'
p594
I835
sS'ADAMS'
p595
I1386
sS'THAT'
p596
I1077
sS'STRONG'
p597
I1622
sS'THAY'
p598
I1079
sS'MOVE'
p599
I2516
sS'BRIDE'
p600
I1889
sS'CANT'
p601
I516
sS'XMEN'
p602
I244
sS'CARRIBEAN'
p603
I1437
sS'BOUNCED'
p604
I2132
sS'MINUS'
p605
I327
sS'THAM'
p606
I1088
sS'LIKED'
p607
I2033
sS'UNIQUE'
p608
I604
sS'ENDING'
p609
I380
sS'CLASSIC'
p610
I714
sS'SWEET'
p611
I2038
sS'APOCALIPSE'
p612
I2868
sS'SNEAK'
p613
I1720
sS'KEEP'
p614
I2847
sS'SPECIFIC'
p615
I611
sS'INCLUDS'
p616
I1636
sS'NICHOLS'
p617
I2349
sS'MECHANICAL'
p618
I2684
sS'CASTLE'
p619
I1842
sS'BEFORE'
p620
I1217
sS'EXPENSIVE'
p621
I2048
sS'TAKES'
p622
I1645
sS'WIDE'
p623
I1090
sS'INSIST'
p624
I1257
sS'EXPLORED'
p625
I923
sS'CHAMICAL'
p626
I0
sS'MASSIVE'
p627
I1042
sS'KISS'
p628
I2537
sS'BLURAY'
p629
I2721
sS'TAKEN'
p630
I1653
sS'ALEX'
p631
I229
sS'RECTUM'
p632
I2967
sS'BALANCE'
p633
I508
sS'WANNA'
p634
I2228
sS'LIVED'
p635
I2061
sS'50'
p636
I609
sS'SKINS'
p637
I242
sS'POUNDING'
p638
I2201
sS'CAMELS'
p639
I2929
sS'LIVES'
p640
I3015
sS'SCARIER'
p641
I108
sS'REMOVING'
p642
I1456
sS'SLAPPING'
p643
I1289
sS'SURE'
p644
I1128
sS'PAIN'
p645
I1129
sS'OVERLOOKED'
p646
I2088
sS'KNEW'
p647
I1133
sS'LAUGHTING'
p648
I525
sS'HU'
p649
I2963
sS'STALONE'
p650
I2570
sS'SLUSHY'
p651
I1470
sS'RIDICULOUS'
p652
I1084
sS'GAMES'
p653
I467
sS'HM'
p654
I2966
sS'PAIR'
p655
I1137
sS'SOUNDS'
p656
I2266
sS'REYNOLDS'
p657
I2482
sS'INEVITABLE'
p658
I1033
sS'DREAMWORKS'
p659
I37
sS'HEAVEN'
p660
I1582
sS'NEEDED'
p661
I303
sS'HOFFMAN'
p662
I1663
sS'RITUAL'
p663
I275
sS'TERRIBLE'
p664
I1834
sS'ECKART'
p665
I0
sS'PRODUCTION'
p666
I215
sS'EXPLOSIONS'
p667
I749
sS'FAVREAU'
p668
I1428
sS'CAMERON'
p669
I1551
sS'WHITERS'
p670
I0
sS'INFORMATION'
p671
I1703
sS'WEDDING'
p672
I2068
sS'CAPS'
p673
I598
sS'COURSE'
p674
I955
sS'SCIFI'
p675
I1713
sS'DRAWS'
p676
I437
sS'CAPE'
p677
I603
sS'TIMES'
p678
I2600
sS'UNDERRATED'
p679
I2318
sS'TITANS'
p680
I1089
sS'MESSED'
p681
I1753
sS'MATT'
p682
I2567
sS'OT'
p683
I1438
sS'SURPRISING'
p684
I703
sS'WOOP'
p685
I1170
sS'WARM'
p686
I129
sS'MANLY'
p687
I1996
sS'SENSE'
p688
I1700
sS'QUALITY'
p689
I2615
sS'RATED'
p690
I298
sS'EATING'
p691
I823
sS'SUB'
p692
I1604
sS'HAVING'
p693
I1538
sS'CAUSED'
p694
I1547
sS'ZEUS'
p695
I1874
sS'PROBLEMS'
p696
I2298
sS'ABOUT'
p697
I2924
sS'DEEP'
p698
I1498
sS'PICKS'
p699
I340
sS'TWICE'
p700
I420
sS'GAME'
p701
I2170
sS'REFERENCES'
p702
I1445
sS'GAMA'
p703
I2171
sS'GOT'
p704
I260
sS'HOLE'
p705
I135
sS'FREAKING'
p706
I1188
sS'SLOW'
p707
I1168
sS'ELIZABETH'
p708
I177
sS'TEN'
p709
I1590
sS'CONTENDER'
p710
I1848
sS'DEFINITE'
p711
I1212
sS'SHAPE'
p712
I2142
sS'TWENTIES'
p713
I1070
sS'NBC'
p714
I1598
sS'CORE'
p715
I641
sS'ENTIRE'
p716
I2352
sS'OBVIOSLY'
p717
I1548
sS'HOLES'
p718
I2310
sS'JAPANESE'
p719
I52
sS'WRITE'
p720
I912
sS'ADD'
p721
I2872
sS'RENT'
p722
I1109
sS'ADN'
p723
I2876
sS'CHIPMUNKS'
p724
I2754
sS'PROBLEM'
p725
I2981
sS'FISHBURNES'
p726
I0
sS'BURNED'
p727
I2009
sS'FAR'
p728
I1572
sS'GRIBBLE'
p729
I667
sS'WAYS'
p730
I1209
sS'STYLISTIC'
p731
I1662
sS'MESSAGES'
p732
I276
sS'WIERD'
p733
I2106
sS'ARITE'
p734
I1081
sS'WILLIAM'
p735
I2301
sS'CONSIDERED'
p736
I1144
sS'HI'
p737
I2965
sS'SCOTT'
p738
I1746
sS'FRIEND'
p739
I628
sS'LEFT'
p740
I562
sS'DUTY'
p741
I1251
sS'THOUGHFUL'
p742
I1559
sS'CHARACTER'
p743
I472
sS'NUMBER'
p744
I1849
sS'LOYAL'
p745
I755
sS'DRAMATIC'
p746
I1275
sS'HELPS'
p747
I2338
sS'BACKGROUND'
p748
I600
sS'INSTANTLY'
p749
I2820
sS'ROBERT'
p750
I1813
sS'BROWNING'
p751
I1097
sS'DRAGGED'
p752
I1942
sS'ALSO'
p753
I1910
sS'LOUDLY'
p754
I1242
sS'PLAIN'
p755
I2814
sS'VOODOO'
p756
I1152
sS'OVRT'
p757
I0
sS'KRISTEN'
p758
I374
sS'ADULT'
p759
I130
sS'SUFFERS'
p760
I2305
sS'SHOT'
p761
I1158
sS'TRON'
p762
I1159
sS'SHOW'
p763
I1160
sS'SUGGEST'
p764
I527
sS'VALUE'
p765
I2816
sS'HOW'
p766
I169
sS'SERIOUSLY'
p767
I1014
sS'POTENTIAL'
p768
I1123
sS'CHEWING'
p769
I1563
sS'SHOE'
p770
I1166
sS'DECADE'
p771
I2697
sS'JUMP'
p772
I2371
sS'SHEER'
p773
I263
sS'SIGNIFICANTLY'
p774
I998
sS'INCREDIBLE'
p775
I2989
sS'ACCENTS'
p776
I1495
sS'KUNIS'
p777
I2212
sS'VALENTINE'
p778
I1773
sS'MOUTH'
p779
I360
sS'ULTIMATE'
p780
I198
sS'GENRE'
p781
I2019
sS'IRONMAN'
p782
I1725
sS'INCREDIBLY'
p783
I2998
sS'VIEWERS'
p784
I1775
sS'SATISFACTORY'
p785
I1397
sS'SPITE'
p786
I390
sS'SIMPLE'
p787
I2037
sS'NOONE'
p788
I1932
sS'NARCISSTIC'
p789
I1163
sS'BLAH'
p790
I1297
sS'SIMPLY'
p791
I2043
sS'SCREENING'
p792
I398
sS'PREVIEWS'
p793
I1027
sS'BEACH'
p794
I174
sS'ANYONE'
p795
I1069
sS'DIRECTION'
p796
I1272
sS'SHAME'
p797
I515
sS'QUOTE'
p798
I1919
sS'LASTS'
p799
I2215
sS'DEPARTMENT'
p800
I2290
sS'RIDING'
p801
I2708
sS'RONNY'
p802
I1930
sS'SAYING'
p803
I376
sS'FULL'
p804
I1614
sS'CONVENTIONALLY'
p805
I2297
sS'FIT'
p806
I210
sS'SOMEWHERE'
p807
I211
sS'RANDOM'
p808
I378
sS'ANYWAY'
p809
I2689
sS'LEAST'
p810
I1865
sS'FEELINGS'
p811
I101
sS'PRIDE'
p812
I25
sS'VERSION'
p813
I1609
sS'STADIUM'
p814
I485
sS'FEELING'
p815
I325
sS'SLAVISHLY'
p816
I1986
sS'BUMPED'
p817
I1831
sS'CHAMELEON'
p818
I1571
sS'PROCESS'
p819
I2474
sS'CONVENIENT'
p820
I347
sS'REVIEW'
p821
I1211
sS'VIEW'
p822
I2733
sS'ACCENT'
p823
I2620
sS'AMUSED'
p824
I2312
sS'WILL'
p825
I2817
sS'ASKING'
p826
I636
sS'DIAZ'
p827
I1610
sS'PATTINSON'
p828
I328
sS'WILD'
p829
I2819
sS'FRUSTRATED'
p830
I1192
sS'REMINSCENT'
p831
I2230
sS'ESTABLISHED'
p832
I58
sS'WANT'
p833
I158
sS'KEPT'
p834
I553
sS'RINGS'
p835
I441
sS'DESTROYED'
p836
I214
sS'MALIN'
p837
I2270
sS'FAIRY'
p838
I1789
sS'FORGET'
p839
I48
sS'HIDE'
p840
I591
sS'YOULL'
p841
I2755
sS'TRASHING'
p842
I528
sS'SMOOTHLY'
p843
I1059
sS'WRONG'
p844
I185
sS'EMOTIONS'
p845
I1607
sS'EXPLOITATION'
p846
I2099
sS'WOLF'
p847
I1432
sS'HANGING'
p848
I9
sS'RELIED'
p849
I1341
sS'MEDIOCRITY'
p850
I2183
sS'WEEKEND'
p851
I748
sS'MYSTERY'
p852
I1777
sS'FLAT'
p853
I1658
sS'FLAW'
p854
I1659
sS'TRANSFORMERS'
p855
I1413
sS'MALL'
p856
I1684
sS'LITERALLY'
p857
I2909
sS'BUSTIERS'
p858
I1900
sS'DISCONNECTION'
p859
I232
sS'INDIVIDUAL'
p860
I1995
sS'O'
p861
I657
sS'CHICK'
p862
I2216
sS'DISLIKE'
p863
I2340
sS'SA'
p864
I942
sS'COOL'
p865
I797
sS'ME'
p866
I139
sS'MM'
p867
I145
sS'SOLELESS'
p868
I0
sS'MO'
p869
I146
sS'SCHRIEVER'
p870
I0
sS'JULIA'
p871
I100
sS'MONTANA'
p872
I2671
sS'HYPED'
p873
I1947
sS'SOCIAL'
p874
I1629
sS'MY'
p875
I151
sS'REAL'
p876
I1369
sS'READ'
p877
I1375
sS'DOC'
p878
I365
sS'SUITS'
p879
I2337
sS'BALLSIEST'
p880
I1337
sS'RELEASE'
p881
I422
sS'DREAMING'
p882
I1446
sS'WASTED'
p883
I1945
sS'ANIMALS'
p884
I2460
sS'AKA'
p885
I91
sS'COLUMBUS'
p886
I642
sS'CREEPED'
p887
I2293
sS'WILLIS'
p888
I1406
sS'SETH'
p889
I2850
sS'ARNOLD'
p890
I1284
sS'CHRISTMAS'
p891
I639
sS'HISPANIC'
p892
I346
sS'HARDWICKE'
p893
I105
sS'AMERICA'
p894
I1138
sS'BODIES'
p895
I1345
sS'YELLING'
p896
I653
sS'HUMOUR'
p897
I854
sS'IVE'
p898
I1291
sS'INCLINED'
p899
I2448
sS'WAFFLE'
p900
I1473
sS'FEFTEEN'
p901
I0
sS'RAYAN'
p902
I1959
sS'MEANWHILE'
p903
I1965
sS'HARRISON'
p904
I1356
sS'ATROCIOUS'
p905
I1695
sS'CHILDHOOD'
p906
I1044
sS'ULTIMATELY'
p907
I1009
sS'DILEMMA'
p908
I957
sS'SITTING'
p909
I167
sS'MUSEUM'
p910
I2950
sS'PLEASE'
p911
I2005
sS'SINGLE'
p912
I2277
sS'PLAUSIBLE'
p913
I1992
sS'CONNECTED'
p914
I660
sS'SUPPOSED'
p915
I1891
sS'MORGAN'
p916
I1687
sS'PUT'
p917
I1829
sS'SCENSE'
p918
I2008
sS'ANIMATED'
p919
I2080
sS'SLIGHTLY'
p920
I662
sS'UPFRONT'
p921
I458
sS'OWES'
p922
I2095
sS'RELATIONSHIP'
p923
I1872
sS'ALTHOUGHT'
p924
I1583
sS'DESCRIBE'
p925
I1496
sS'BAY'
p926
I419
sS'BAG'
p927
I1887
sS'BAD'
p928
I421
sS'KRISTENS'
p929
I2478
sS'TRUCK'
p930
I939
sS'MEDUSA'
p931
I207
sS'BAM'
p932
I2595
sS'YOUR'
p933
I1449
sS'NUKES'
p934
I2985
sS'GOODWIN'
p935
I2112
sS'LEGALISTIC'
p936
I1309
sS'TOGETHER'
p937
I754
sS'1980S'
p938
I904
sS'PRISON'
p939
I588
sS'SOFT'
p940
I2892
sS'COOKS'
p941
I798
sS'FLOOGED'
p942
I0
sS'AMBUSHED'
p943
I2780
sS'ALMOST'
p944
I2824
sS'MIXTING'
p945
I0
sS'MARRIED'
p946
I2727
sS'ANDREW'
p947
I1274
sS'REST'
p948
I1353
sS'FINALLY'
p949
I782
sS'COMPUTER'
p950
I1098
sS'LIKING'
p951
I2278
sS'VOCATION'
p952
I958
sS'LAUGHINGLOOKED'
p953
I0
sS'COMPARE'
p954
I1694
sS'ALREADY'
p955
I286
sS'THEATRE'
p956
I1130
sS'AFTERWARDS'
p957
I1253
sS'HUDSON'
p958
I2435
sS'EDGY'
p959
I2127
sS'EDGE'
p960
I2129
sS'HANDS'
p961
I2538
sS'AMANDA'
p962
I1200
sS'INTENSE'
p963
I2218
sS'WAGON'
p964
I984
sS'NEXT'
p965
I2240
sS'LESS'
p966
I184
sS'COMPUTERS'
p967
I1833
sS'SPENT'
p968
I335
sS'ROYAN'
p969
I584
sS'LIT'
p970
I1909
sS'LIP'
p971
I1911
sS'SPEND'
p972
I2133
sS'FILM'
p973
I1507
sS'FILL'
p974
I1508
sS'NAMED'
p975
I2417
sS'OFFER'
p976
I693
sS'TUESDAY'
p977
I2781
sS'PUNCH'
p978
I75
sS'DISTRACT'
p979
I2977
sS'STELLAR'
p980
I2918
sS'FUTURE'
p981
I442
sS'NAMES'
p982
I2423
sS'MIRANDA'
p983
I746
sS'GIANT'
p984
I1953
sS'PARTICULARY'
p985
I2923
sS'FAMILY'
p986
I580
sS'AMOUNTS'
p987
I2282
sS'WAYANS'
p988
I1741
sS'LONDON'
p989
I206
sS'MURPHY'
p990
I2258
sS'JAMES'
p991
I990
sS'SCREENINGS'
p992
I1921
sS'SWORD'
p993
I915
sS'WORMTONGUE'
p994
I0
sS'PREPARED'
p995
I2300
sS'CAUSE'
p996
I40
sS'SOUNDED'
p997
I2321
sS'WISE'
p998
I2971
sS'EXEPTION'
p999
I1780
sS'GOTTEN'
p1000
I1888
sS'CONTAINS'
p1001
I1648
sS'UNREASONABLE'
p1002
I1934
sS'REGULAR'
p1003
I2224
sS'EITHER'
p1004
I2206
sS'PENIS'
p1005
I2455
sS'AWESOME'
p1006
I900
sS'KICK'
p1007
I2877
sS'TREMENDOUSLY'
p1008
I147
sS'DONT'
p1009
I1845
sS'HATING'
p1010
I51
sS'DONE'
p1011
I1853
sS'OVERRATED'
p1012
I612
sS'DICKENS'
p1013
I2836
sS'NARRATIVE'
p1014
I2316
sS'FINAL'
p1015
I2625
sS'WOULDVE'
p1016
I1219
sS'MOUNTAIN'
p1017
I2113
sS'COMPLAINT'
p1018
I2164
sS'MADE'
p1019
I2970
sS'SOMETIMES'
p1020
I1933
sS'FORM'
p1021
I692
sS'JESUS'
p1022
I2610
sS'PORTMAN'
p1023
I1664
sS'EDDIE'
p1024
I1400
sS'EIGHT'
p1025
I2672
sS'COMPETENT'
p1026
I2784
sS'ANNE'
p1027
I2203
sS'DIABOLICAL'
p1028
I2932
sS'INTESTINAL'
p1029
I1395
sS'FAIRLY'
p1030
I540
sS'END'
p1031
I162
sS'AROUND'
p1032
I1372
sS'G'
p1033
I2597
sS'MIRANDAS'
p1034
I0
sS'COULDVE'
p1035
I2117
sS'HUMMAND'
p1036
I0
sS'NOTEBOOK'
p1037
I2500
sS'AMNESIA'
p1038
I2056
sS'TECHNOLOGIES'
p1039
I1472
sS'LEAD'
p1040
I2907
sS'WHOEVER'
p1041
I764
sS'PLEASER'
p1042
I2688
sS'COATING'
p1043
I2825
sS'DAYS'
p1044
I277
sS'HEAR'
p1045
I699
sS'KID'
p1046
I552
sS'CARRIE'
p1047
I1950
sS'MILOS'
p1048
I2315
sS'UNKNOWN'
p1049
I2619
sS'IST'
p1050
I278
sS'DADDY'
p1051
I632
sS'WINSTEAD'
p1052
I1946
sS'ISN'
p1053
I280
sS'FOUND'
p1054
I1788
sS'DRAWN'
p1055
I444
sS'HATERS'
p1056
I496
sS'ENJOY'
p1057
I47
sS'SET'
p1058
I1987
sS'INCOHERENT'
p1059
I2354
sS'HOUR'
p1060
I1678
sS'HARISSON'
p1061
I0
sS'MISSION'
p1062
I1743
sS'AGENT'
p1063
I903
sS'SEX'
p1064
I1991
sS'PLANET'
p1065
I2269
sS'SEE'
p1066
I1994
sS'2'
p1067
I304
sS'LOOKS'
p1068
I2519
sS'DIFFERS'
p1069
I956
sS'WORLD'
p1070
I1382
sS'JOHN'
p1071
I1215
sS'GRACE'
p1072
I1883
sS'PRESENT'
p1073
I2808
sS'ACRESS'
p1074
I1202
sS'CARS'
p1075
I1023
sS'TELESCOPED'
p1076
I262
sS'TITANIC'
p1077
I2408
sS'CART'
p1078
I1026
sS'LOOKING'
p1079
I1012
sS'HAMMER'
p1080
I434
sS'IDIOSYNCRATIC'
p1081
I945
sS'CARE'
p1082
I1034
sS'INFO'
p1083
I2264
sS'10'
p1084
I1519
sS'12'
p1085
I1091
sS'DUNCAN'
p1086
I1955
sS'MITCHELL'
p1087
I2081
sS'PACK'
p1088
I2083
sS'LIST'
p1089
I1585
sS'MANNY'
p1090
I2421
sS'GUESSED'
p1091
I718
sS'MEMORABLE'
p1092
I649
sS'THREADBARE'
p1093
I324
sS'CABARET'
p1094
I2147
sS'MAKE'
p1095
I202
sS'BUSTING'
p1096
I1235
sS'YOUNGER'
p1097
I751
sS'PARTICULARLY'
p1098
I1943
sS'THANKFULLY'
p1099
I1634
sS'DI'
p1100
I406
sS'FAILS'
p1101
I1135
sS'TOOTH'
p1102
I1150
sS'SADNESS'
p1103
I1482
sS'EMPIRE'
p1104
I2903
sS'IRRELEVANT'
p1105
I1276
sS'PSYCHO'
p1106
I878
sS'DISASTEROUS'
p1107
I1100
sS'BOTH'
p1108
I2022
sS'HUMONGOUS'
p1109
I1589
sS'SOMEONE'
p1110
I1761
sS'COASTER'
p1111
I2859
sS'EXPECTATIONS'
p1112
I212
sS'COMPASS'
p1113
I1973
sS'HORRIFYING'
p1114
I711
sS'ESTABLISH'
p1115
I1643
sS'ORIGINAL'
p1116
I1543
sS'DISNEY'
p1117
I66
sS'GOO'
p1118
I249
sS'THEATER'
p1119
I1330
sS'COPE'
p1120
I349
sS'GOD'
p1121
I252
sS'INTO'
p1122
I2234
sS'FUCKERS'
p1123
I377
sS'TV'
p1124
I1558
sS'INCLUDES'
p1125
I1529
sS'LEVITT'
p1126
I717
sS'JANE'
p1127
I686
sS'INSIDIOUS'
p1128
I1311
sS'RECOMMEND'
p1129
I117
sS'SERIOUS'
p1130
I758
sS'DOZING'
p1131
I550
sS'PREQUEL'
p1132
I1249
sS'SONGS'
p1133
I760
sS'TOPHER'
p1134
I1978
sS'CITY'
p1135
I1062
sS'CONCEPT'
p1136
I761
sS'VICE'
p1137
I2306
sS'LACKLUSTER'
p1138
I961
sS'FRIENDS'
p1139
I3009
sS'CORPSE'
p1140
I2910
sS'ADMIT'
p1141
I2773
sS'SOLVED'
p1142
I806
sS'BUREAU'
p1143
I1214
sS'DISAPPOINTMENT'
p1144
I1243
sS'BESIDES'
p1145
I1029
sS'SCRIPTS'
p1146
I361
sS'JIVE'
p1147
I698
sS'FLASHBACK'
p1148
I2330
sS'SPEAKING'
p1149
I1073
sS'WE'
p1150
I447
sS'WA'
p1151
I450
sS'EMPOWERED'
p1152
I1908
sS'BELLA'
p1153
I531
sS'REVIEWS'
p1154
I890
sS'ORGASM'
p1155
I1594
sS'EXTENT'
p1156
I457
sS'PRAYER'
p1157
I719
sS'ANNOYING'
p1158
I721
sS'AKERMAN'
p1159
I895
sS'KIDS'
p1160
I84
sS'FAITHFUL'
p1161
I725
sS'STARTS'
p1162
I274
sS'FRAME'
p1163
I2736
sS'ITLL'
p1164
I2335
sS'HOWEVER'
p1165
I454
sS'BUST'
p1166
I395
sS'TRULY'
p1167
I1185
sS'CARTOONS'
p1168
I1982
sS'IMPORTANT'
p1169
I1531
sS'GARGAMELS'
p1170
I0
sS'RESONATED'
p1171
I362
sS'SAPPY'
p1172
I792
sS'ENTERTAINING'
p1173
I371
sS'NORMALLY'
p1174
I2685
sS'MOVEMENT'
p1175
I1613
sS'HAH'
p1176
I577
sS'LEVEL'
p1177
I800
sS'SURPRISES'
p1178
I468
sS'RISE'
p1179
I28
sS'HAD'
p1180
I582
sS'HIRE'
p1181
I1478
sS'FORTY'
p1182
I254
sS'PAST'
p1183
I1593
sS'SOUNDTRACKS'
p1184
I44
sS'PASS'
p1185
I1597
sS'HAS'
p1186
I589
sS'SURPRISED'
p1187
I2160
sS'TOWN'
p1188
I1674
sS'TARANTINO'
p1189
I2471
sS'BLOCKBUSTER'
p1190
I2655
sS'ACTUAL'
p1191
I2925
sS'YEA'
p1192
I567
sS'AFTER'
p1193
I181
sS'CULTURE'
p1194
I1993
sS'MOURN'
p1195
I1736
sS'GOES'
p1196
I829
sS'INTERNET'
p1197
I1016
sS'YES'
p1198
I574
sS'YET'
p1199
I575
sS'LOWS'
p1200
I700
sS'KNIGHTLEY'
p1201
I2506
sS'VILLAINS'
p1202
I2651
sS'HELP'
p1203
I1740
sS'MARRY'
p1204
I2355
sS'STEAMY'
p1205
I2612
sS'HELD'
p1206
I1190
sS'CATCHING'
p1207
I1001
sS'MELISSA'
p1208
I443
sS'WAVELENGTH'
p1209
I1004
sS'HELL'
p1210
I1749
sS'DYNAMICS'
p1211
I2375
sS'DENNIS'
p1212
I908
sS'AIRPLANE'
p1213
I1701
sS'PISSED'
p1214
I2021
sS'EAGLE'
p1215
I1020
sS'AHEAD'
p1216
I1624
sS'NOTABLE'
p1217
I1418
sS'CHRISTIANITY'
p1218
I1459
sS'DISTRACTING'
p1219
I2141
sS'3'
p1220
I1213
sS'FUNNIEST'
p1221
I197
sS'YORKER'
p1222
I2181
sS'CARRY'
p1223
I1055
sS'TERIFFIC'
p1224
I2414
sS'RAOA'
p1225
I0
sS'EQUIVALENT'
p1226
I1417
sS'ARTISTIC'
p1227
I1938
sS'CONSIDERING'
p1228
I1261
sS'GOLDEN'
p1229
I96
sS'EXTREMLY'
p1230
I68
sS'FOR'
p1231
I630
sS'CLUB'
p1232
I879
sS'SHOCKED'
p1233
I1120
sS'CLUE'
p1234
I881
sS'ARENT'
p1235
I1628
sS'IRELAND'
p1236
I2057
sS'TOYS'
p1237
I1639
sS'WHOLE'
p1238
I2031
sS'TODAY'
p1239
I875
sS'INTERESTS'
p1240
I2627
sS'FEDORA'
p1241
I2102
sS'OSTENSIBLY'
p1242
I1151
sS'CONFUSION'
p1243
I452
sS'S'
p1244
I1241
sS'HOMAGES'
p1245
I2589
sS'WIND'
p1246
I203
sS'SINESTRO'
p1247
I1544
sS'EYEBROWS'
p1248
I95
sS'COP'
p1249
I460
sS'FLUIDITY'
p1250
I592
sS'UNFORTUNATELY'
p1251
I1093
sS'THESE'
p1252
I1281
sS'ILL'
p1253
I462
sS'COZ'
p1254
I463
sS'IDEAS'
p1255
I1119
sS'PER'
p1256
I2200
sS'SLEEPING'
p1257
I1296
sS'EXCUSE'
p1258
I1665
sS'DAVE'
p1259
I493
sS'STRIKES'
p1260
I1468
sS'SOLDIERS'
p1261
I2694
sS'COM'
p1262
I469
sS'PEA'
p1263
I2205
sS'RECENT'
p1264
I2122
sS'CASE'
p1265
I1278
sS'WORSE'
p1266
I1570
sS'TUNNEL'
p1267
I2462
sS'SATIRE'
p1268
I2051
sS'JOB'
p1269
I2761
sS'RELATED'
p1270
I2557
sS'BETTER'
p1271
I1262
sS'CAST'
p1272
I1285
sS'FENOMENAL'
p1273
I883
sS'EVERY'
p1274
I31
sS'EMPOW'
p1275
I0
sS'SUCH'
p1276
I927
sS'TEARED'
p1277
I1410
sS'PERSONALITIES'
p1278
I1065
sS'FAIR'
p1279
I427
sS'SEATS'
p1280
I2865
sS'TWO'
p1281
I1650
sS'SECOND'
p1282
I55
sS'STUFF'
p1283
I2731
sS'WAY'
p1284
I684
sS'WAITHING'
p1285
I2863
sS'COME'
p1286
I1232
sS'WAR'
p1287
I689
sS'PLOT'
p1288
I109
sS'RUN'
p1289
I2209
sS'GLANDON'
p1290
I0
sS'THINKING'
p1291
I1361
sS'WINS'
p1292
I193
sS'TYPE'
p1293
I119
sS'ENJOYED'
p1294
I386
sS'OVERCOME'
p1295
I217
sS'DISPLAYS'
p1296
I1596
sS'CUTE'
p1297
I948
sS'DID'
p1298
I801
sS'DIE'
p1299
I802
sS'DIG'
p1300
I803
sS'GIRLS'
p1301
I301
sS'AIR'
p1302
I500
sS'REALISTIC'
p1303
I993
sS'WOLVERINES'
p1304
I2327
sS'PARTICULAR'
p1305
I1668
sS'HOLDERS'
p1306
I1247
sS'WONDER'
p1307
I1206
sS'MEANT'
p1308
I2711
sS'CORNISH'
p1309
I2163
sS'SPECTACLES'
p1310
I579
sS'POLICE'
p1311
I960
sS'MEANS'
p1312
I2715
sS'VIBE'
p1313
I2484
sS'TIGHTS'
p1314
I417
sS'XXX'
p1315
I492
sS'LIKEABLE'
p1316
I2152
sS'BATMAN'
p1317
I694
sS'HOURS'
p1318
I1619
sS'FRUIT'
p1319
I1325
sS'THROWS'
p1320
I1843
sS'HORNET'
p1321
I2274
sS'MEAN'
p1322
I237
sS'PANS'
p1323
I1738
sS'HOPING'
p1324
I2086
sS'IQ'
p1325
I511
sS'MAYBE'
p1326
I936
sS'IS'
p1327
I512
sS'IT'
p1328
I513
sS'RODRIGEZ'
p1329
I0
sS'MINES'
p1330
I2912
sS'II'
p1331
I514
sS'IM'
p1332
I518
sS'INNER'
p1333
I2955
sS'IN'
p1334
I520
sS'BROOKE'
p1335
I1031
sS'LORAIN'
p1336
I1429
sS'CHO'
p1337
I2437
sS'ID'
p1338
I523
sS'IF'
p1339
I524
sS'SHOES'
p1340
I949
sS'WADES'
p1341
I1423
sS'MISSING'
p1342
I2013
sS'REBOOT'
p1343
I2573
sS'SMAKCING'
p1344
I0
sS'TAUGHT'
p1345
I243
sS'KUNG'
p1346
I1839
sS'INCEPTION'
p1347
I1354
sS'GIMMICK'
p1348
I2426
sS'SNIPER'
p1349
I2343
sS'BOX'
p1350
I842
sS'BOY'
p1351
I843
sS'HBO'
p1352
I844
sS'MALODRAMATIC'
p1353
I0
sS'THOUGH'
p1354
I354
sS'HANNAH'
p1355
I788
sS'NAH'
p1356
I2283
sS'WITHIN'
p1357
I2235
sS'PARK'
p1358
I1875
sS'BACK'
p1359
I2188
sS'SPEECHLESS'
p1360
I1769
sS'NAP'
p1361
I2286
sS'PART'
p1362
I1877
sS'PROTECTING'
p1363
I2866
sS'GIRL'
p1364
I1005
sS'PLAYING'
p1365
I1737
sS'PLEASANTLY'
p1366
I857
sS'FROWN'
p1367
I156
sS'EVERYTHING'
p1368
I635
sS'SEQUAL'
p1369
I787
sS'APPRECIATE'
p1370
I194
sS'WALKED'
p1371
I2311
sS'PET'
p1372
I2198
sS'CLICHE'
p1373
I658
sS'PRAIRIE'
p1374
I821
sS'CHRISTOPHER'
p1375
I412
sS'COSTUME'
p1376
I29
sS'READABLES'
p1377
I0
sS'STUPID'
p1378
I1197
sS'TONGUE'
p1379
I2930
sS'CONVINCED'
p1380
I1882
sS'ENDEARING'
p1381
I2846
sS'HARD'
p1382
I1800
sS'NEIL'
p1383
I1794
sS'SHIELD'
p1384
I2698
sS'ROCKWELL'
p1385
I2630
sS'OPERA'
p1386
I989
sS'REMAKE'
p1387
I1244
sS'MYSELF'
p1388
I1279
sS'PREDATOR'
p1389
I1768
sS'AWARDS'
p1390
I1227
sS'DESIGNED'
p1391
I2604
sS'EXCLAIMING'
p1392
I573
sS'COMES'
p1393
I1250
sS'SHOWS'
p1394
I1019
sS'PREDICT'
p1395
I899
sS'HUNT'
p1396
I608
sS'IDEAL'
p1397
I583
sS'CREDIT'
p1398
I87
sS'RESPECT'
p1399
I1623
sS'ALTERNATIVE'
p1400
I2146
sS'STONE'
p1401
I1424
sS'RELATE'
p1402
I1847
sS'FOND'
p1403
I1944
sS'TEXTING'
p1404
I1649
sS'DAMAGE'
p1405
I168
sS'CARED'
p1406
I1451
sS'STAND'
p1407
I1433
sS'FONY'
p1408
I1948
sS'FINE'
p1409
I1951
sS'FIND'
p1410
I1952
sS'AFFECTION'
p1411
I2775
sS'RENTING'
p1412
I375
sS'ADDED'
p1413
I1918
sS'BUILDS'
p1414
I1167
sS'VANESSA'
p1415
I595
sS'MAKES'
p1416
I2125
sS'DYNAMIC'
p1417
I5
sS'SNAKE'
p1418
I2536
sS'FAVORITES'
p1419
I1326
sS'COUSINS'
p1420
I2411
sS'TROUBLE'
p1421
I793
sS'GETS'
p1422
I2837
sS'CONFUSING'
p1423
I627
sS'KINGDOM'
p1424
I281
sS'EYES'
p1425
I1075
sS'WEVE'
p1426
I1962
sS'JUST'
p1427
I565
sS'AM'
p1428
I1497
sS'TRY'
p1429
I2360
sS'SNAP'
p1430
I2157
sS'PLACE'
p1431
I1041
sS'FACIAL'
p1432
I2136
sS'GRAPHICS'
p1433
I2804
sS'SIZE'
p1434
I1061
sS'MISS'
p1435
I1856
sS'SHEEN'
p1436
I323
sS'USUAL'
p1437
I1940
sS'NATURAL'
p1438
I933
sS'RAMBLE'
p1439
I3010
sS'OFFERED'
p1440
I1273
sS'DUBLIN'
p1441
I848
sS'HOT'
p1442
I170
sS'PHENOMENAL'
p1443
I631
sS'SYNDROM'
p1444
I2194
sS'GORDONLEVITT'
p1445
I0
sS'CAMARA'
p1446
I713
sS'FAMILIES'
p1447
I490
sS'CHECKING'
p1448
I2880
sS'VOLTURI'
p1449
I166
sS'SMITH'
p1450
I2869
sS'BRIGHT'
p1451
I1165
sS'PROGRAM'
p1452
I1562
sS'DUMB'
p1453
I2647
sS'RANS'
p1454
I1795
sS'FINCH'
p1455
I2997
sS'MILEY'
p1456
I1030
sS'SILK'
p1457
I1976
sS'PHILLY'
p1458
I1903
sS'ISSUES'
p1459
I1611
sS'XMAN'
p1460
I971
sS'MALONE'
p1461
I1783
sS'OWLS'
p1462
I196
sS'UNDERAGE'
p1463
I2050
sS'NE'
p1464
I731
sS'VIOLENT'
p1465
I1355
sS'MASTER'
p1466
I305
sS'NUMBERS'
p1467
I1699
sS'SLOG'
p1468
I1175
sS'DOLBY'
p1469
I824
sS'BUILDING'
p1470
I1535
sS'DONKEY'
p1471
I331
sS'WITHERS'
p1472
I41
sS'SPOKEN'
p1473
I1051
sS'DISAGREE'
p1474
I2842
sS'J'
p1475
I2975
sS'TEENYTINY'
p1476
I0
sS'STREAMS'
p1477
I1316
sS'EMOTIONAL'
p1478
I710
sS'WORRIED'
p1479
I1195
sS'MINUTES'
p1480
I2983
sS'LEA'
p1481
I2389
sS'SHOOTOUT'
p1482
I752
sS'ACADEMY'
p1483
I2631
sS'SHOWING'
p1484
I2166
sS'LEO'
p1485
I2395
sS'INTENSITY'
p1486
I2739
sS'LET'
p1487
I2399
sS'LAUGH'
p1488
I2785
sS'KINGS'
p1489
I1830
sS'ADDITIONS'
p1490
I2945
sS'POWERS'
p1491
I326
sS'ACTED'
p1492
I2039
sS'EXTREME'
p1493
I2403
sS'FOREVER'
p1494
I1140
sS'NATALIE'
p1495
I1536
sS'CINEMA'
p1496
I1492
sS'EXZPLAINING'
p1497
I0
sS'STRANGERS'
p1498
I256
sS'BENEFIT'
p1499
I1390
sS'ASPECT'
p1500
I1988
sS'DUKES'
p1501
I549
sS'SEEM'
p1502
I339
sS'CRITICS'
p1503
I2574
sS'SPEWING'
p1504
I1134
sS'PERCEIVE'
p1505
I408
sS'SLOPE'
p1506
I1154
sS'5'
p1507
I1517
sS'APPOLOGIE'
p1508
I0
sS'PETER'
p1509
I2904
sS'TAKE'
p1510
I1124
sS'SUPERFICIAL'
p1511
I2149
sS'COVERED'
p1512
I2530
sS'FIRE'
p1513
I2064
sS'THERE'
p1514
I1457
sS'START'
p1515
I1460
sS'SWEAR'
p1516
I2489
sS'BUDGETS'
p1517
I1686
sS'STARS'
p1518
I2629
sS'IMPOSSIBLE'
p1519
I1056
sS'INFILTRATE'
p1520
I1092
sS'SUPERMAN'
p1521
I2
sS'ANYWAYIT'
p1522
I0
sS'CATE'
p1523
I1453
sS'PRICE'
p1524
I1132
sS'ZOOKEEPER'
p1525
I428
sS'SYSTEM'
p1526
I2621
sS'THOR'
p1527
I2027
sS'CHAOTIC'
p1528
I1651
sS'PRIEST'
p1529
I1015
sS'MAGAZINES'
p1530
I995
sS'CHILD'
p1531
I4
sS'ROLLING'
p1532
I747
sS'TRANSFOMERS'
p1533
I1726
sS'AMUSEMENT'
p1534
I1007
sS'SLUTTY'
p1535
I563
sS'EXECUTE'
p1536
I985
sS'SIT'
p1537
I2483
sS'GINNIFER'
p1538
I2815
sS'SIX'
p1539
I2485
sS'CONVINCING'
p1540
I743
sS'MIKE'
p1541
I2799
sS'COMMERCIALIZATION'
p1542
I2563
sS'SIC'
p1543
I2523
sS'STRANGE'
p1544
I2835
sS'THANKS'
p1545
I425
sS'PERSONALLY'
p1546
I494
sS'STEREOTYPICAL'
p1547
I45
sS'USAULALY'
p1548
I0
sS'VOICE'
p1549
I2481
sS'UNINTERESTING'
p1550
I2551
sS'GROWS'
p1551
I537
sS'LIKABLE'
p1552
I2822
sS'FORCE'
p1553
I295
sS'HMM'
p1554
I2802
sS'WAS'
p1555
I688
sS'BARELY'
p1556
I2026
sS'FIGHTING'
p1557
I2851
sS'CARELL'
p1558
I1600
sS'HONESTLY'
p1559
I2512
sS'ITSLEF'
p1560
I2723
sS'IMPLAUSIBLE'
p1561
I1744
sS'MEDAL'
p1562
I2674
sS'SORCERER'
p1563
I110
sS'PRIME'
p1564
I1512
sS'RATING'
p1565
I1155
sS'ISRAELI'
p1566
I1207
sS'DISTRESS'
p1567
I2035
sS'FIGURE'
p1568
I898
sS'SAOIRSE'
p1569
I1370
sS'SPIDERMAN'
p1570
I1586
sS'JIM'
p1571
I963
sS'GLOSSED'
p1572
I2729
sS'STOPPED'
p1573
I1785
sS'SIMILAR'
p1574
I2272
sS'CHILDREN'
p1575
I1556
sS'UNBELIEVABLY'
p1576
I930
sS'MONSTER'
p1577
I1022
sS'BEAUTIFUL'
p1578
I1693
sS'STAYING'
p1579
I2556
sS'LOOK'
p1580
I2071
sS'POPS'
p1581
I381
sS'STUCK'
p1582
I1067
sS'FAMOUS'
p1583
I1967
sS'HOUSE'
p1584
I1799
sS'LABEOUF'
p1585
I2138
sS'BOOTS'
p1586
I2370
sS'INSTANCE'
p1587
I2661
sS'SPECIAL'
p1588
I2565
sS'RICH'
p1589
I399
sS'FAKED'
p1590
I521
sS'CRINGE'
p1591
I1984
sS'SWIMMING'
p1592
I2934
sS'GREAT'
p1593
I2404
sS'USED'
p1594
I2111
sS'COLORFUL'
p1595
I405
sS'GETTING'
p1596
I2927
sS'GUN'
p1597
I804
sS'GENIOUS'
p1598
I1605
sS'BASED'
p1599
I2700
sS'CHAMELEONS'
p1600
I43
sS'USES'
p1601
I2118
sS'BIGGEST'
p1602
I2956
sS'NOVEMBER'
p1603
I1621
sS'EXEPT'
p1604
I1440
sS'THIRD'
p1605
I192
sS'VISUALS'
p1606
I2367
sS'FOOTAGE'
p1607
I2253
sS'DRIFTWOOD'
p1608
I1332
sS'HUH'
p1609
I1080
sS'UGLY'
p1610
I502
sS'NEGATIVES'
p1611
I2214
sS'CHEERLEADER'
p1612
I2424
sS'POSITIVES'
p1613
I548
sS'LAUTNER'
p1614
I2097
sS'SAFELY'
p1615
I2776
sS'WARNER'
p1616
I2493
sS'LAZY'
p1617
I2737
sS'SUPERHERO'
p1618
I2746
sS'NFL'
p1619
I2544
sS'KIDDY'
p1620
I2911
sS'SISTER'
p1621
I2450
sS'TERMINATOR'
p1622
I2094
sS'ALLEVIATE'
p1623
I1340
sS'CRACK'
p1624
I2875
sS'BABY'
p1625
I2326
sS'DESTROY'
p1626
I526
sS'EXECTLY'
p1627
I2952
sS'AGREE'
p1628
I1486
sS'IDENTITY'
p1629
I1868
sS'BUCK'
p1630
I2063
sS'21ST'
p1631
I1618
sS'SAID'
p1632
I436
sS'LIES'
p1633
I2791
sS'DELIVER'
p1634
I2760
sS'TELL'
p1635
I2158
sS'HEARTED'
p1636
I2829
sS'EXPACT'
p1637
I2400
sS'UNFUNNY'
p1638
I2906
sS'SUCKY'
p1639
I1201
sS'SUCKS'
p1640
I1682
sS'BOLD'
p1641
I643
sS'SENTANCEI'
p1642
I0
sS'COLORS'
p1643
I382
sS'CARRYING'
p1644
I2314
sS'BEND'
p1645
I2479
sS'REA'
p1646
I2577
sS'RED'
p1647
I2579
sS'LAWS'
p1648
I1153
sS'EV'
p1649
I1006
sS'THIRTIES'
p1650
I2617
sS'KNOWS'
p1651
I1661
sS'SPARKS'
p1652
I2702
sS'QUE'
p1653
I2587
sS'SOMEHOW'
p1654
I620
sS'WATCHMAN'
p1655
I2614
sS'FEEL'
p1656
I1846
sS'JUMPING'
p1657
I186
sS'AUDIENCES'
p1658
I1689
sS'WONKA'
p1659
I1971
sS'KINDA'
p1660
I2939
sS'6'
p1661
I1652
sS'KNOWN'
p1662
I1669
sS'OUR'
p1663
I2562
sS'CLAP'
p1664
I1396
sS'OUT'
p1665
I2566
sS'DISPPEARES'
p1666
I0
sS'SABRE'
p1667
I2948
sS'JUSTICE'
p1668
I2410
sS'WARMING'
p1669
I370
sS'LAUGHS'
p1670
I155
sS'VISUAL'
p1671
I882
sS'POUTY'
p1672
I2636
sS'HAPPEN'
p1673
I704
sS'TEAMS'
p1674
I2730
sS'SPIN'
p1675
I497
sS'SHREKS'
p1676
I0
sS'COMMENT'
p1677
I2778
sS'PLACES'
p1678
I2724
sS'PUTS'
p1679
I479
sS'FEATURES'
p1680
I1752
sS'ADVENTURES'
p1681
I464
sS'DIDINT'
p1682
I1053
sS'DEPICTED'
p1683
I2439
sS'SH'
p1684
I938
sS'SO'
p1685
I2664
sS'SL'
p1686
I1511
sS'EXPECTING'
p1687
I1714
sS'ROUGH'
p1688
I2695
sS'GUNS'
p1689
I1612
sS'SE'
p1690
I2683
sS'HMPH'
p1691
I916
sS'DRAIN'
p1692
I1329
sS'CAR'
p1693
I887
sS'CAP'
p1694
I2366
sS'CAT'
p1695
I889
sS'COMPLECATED'
p1696
I2487
sS'AMAZING'
p1697
I964
sS'FIMS'
p1698
I1804
sS'UNDERSTAND'
p1699
I619
sS'CAN'
p1700
I891
sS'EEYORE'
p1701
I2120
sS'DATE'
p1702
I926
sS'MEANINGFUL'
p1703
I189
sS'JEFFREY'
p1704
I1320
sS'SCAR'
p1705
I909
sS'FRANKLY'
p1706
I318
sS'TURNED'
p1707
I1105
sS'TIRED'
p1708
I50
sS'COAT'
p1709
I1731
sS'AMOUNT'
p1710
I1626
sS'BLOOD'
p1711
I1722
sS'INNOCENT'
p1712
I491
sS'DISCOURAGED'
p1713
I2844
sS'KICKS'
p1714
I2805
sS'FURTHER'
p1715
I1599
sS'MOBBING'
p1716
I17
sS'LANDSCAPES'
p1717
I1239
sS'SOMEBODY'
p1718
I1762
sS'BREAKS'
p1719
I596
sS'OPININ'
p1720
I400
sS'RAIN'
p1721
I1879
sS'CONTROVERSY'
p1722
I86
sS'OTHER'
p1723
I2994
sS'GRID'
p1724
I1379
sS'FAKE'
p1725
I2186
sS'DULL'
p1726
I2262
sS'GLAD'
p1727
I1672
sS'NOBLE'
p1728
I1319
sS'PRODUCT'
p1729
I2140
sS'GLENN'
p1730
I2940
sS'BOTHER'
p1731
I2641
sS'ONES'
p1732
I2720
sS'AVATAR'
p1733
I640
sS'FONDLY'
p1734
I2578
sS'PROPAGANDA'
p1735
I712
sS'STORMSHADOW'
p1736
I0
sS'COUPLE'
p1737
I2812
sS'SEEMS'
p1738
I1363
sS'MID'
p1739
I2660
sS'THEMES'
p1740
I768
sS'TRAITS'
p1741
I2189
sS'TRENDS'
p1742
I2190
sS'ITSELF'
p1743
I2092
sS'PREDATORS'
p1744
I1786
sS'LINE'
p1745
I2261
sS'ALVIN'
p1746
I2135
sS'20'
p1747
I1230
sS'BEAUTY'
p1748
I178
sS'FLYING'
p1749
I1048
sS'LONG'
p1750
I2616
sS'PRIORITY'
p1751
I2622
sS'IMMUNE'
p1752
I913
sS'PLUS'
p1753
I659
sS'GORDON'
p1754
I2422
sS'PERVERTED'
p1755
I8
sS'SUIT'
p1756
I2250
sS'RIDICULOUSNESS'
p1757
I1671
sS'CHECK'
p1758
I722
sS'BUNCH'
p1759
I2521
sS'BROAD'
p1760
I1691
sS'YOURSELF'
p1761
I2369
sS'DIRECTOR'
p1762
I1324
sS'LIPS'
p1763
I707
sS'WOHU'
p1764
I0
sS'STEVEN'
p1765
I2239
sS'NARCISSIST'
p1766
I2172
sS'SEAMS'
p1767
I2084
sS'BECAUSE'
p1768
I2895
sS'HESITANT'
p1769
I2025
sS'KILLS'
p1770
I1373
sS'ADDITION'
p1771
I2793
sS'EXCIDED'
p1772
I2881
sS'REMOTELY'
p1773
I1068
sS'BOOKS'
p1774
I2559
sS'SIGNIFICANT'
p1775
I1926
sS'AGAINST'
p1776
I465
sS'SAVE'
p1777
I499
sS'INTERPRET'
p1778
I81
sS'SAVING'
p1779
I1049
sS'REGRET'
p1780
I817
sS'CHANNELS'
p1781
I292
sS'PAPA'
p1782
I1416
sS'QUICKLY'
p1783
I483
sS'CRACKEN'
p1784
I501
sS'ISNT'
p1785
I1745
sS'DISCOVERS'
p1786
I2710
sS'DECAPITATION'
p1787
I1294
sS'FOLLOWING'
p1788
I2397
sS'CRACKED'
p1789
I507
sS'SEVERAL'
p1790
I536
sS'DISCOVERY'
p1791
I445
sS'DISCOURAGE'
p1792
I696
sS'MATRIX'
p1793
I2568
sS'OSCAR'
p1794
I123
sS'EXACTLY'
p1795
I2633
sS'FALLS'
p1796
I1136
sS'BROUGHT'
p1797
I102
sS'I'
p1798
I2849
sS'DROPPED'
p1799
I906
sS'LEADING'
p1800
I1841
sS'PORTRAYAL'
p1801
I2561
sS'COLLECTOR'
p1802
I416
sS'ACCEPTABLE'
p1803
I880
sS'AWKWARD'
p1804
I1707
sS'OVE'
p1805
I188
sS'WITHOUT'
p1806
I1339
sS'SHE'
p1807
I2732
sS'ESTABLSIH'
p1808
I0
sS'BEYOND'
p1809
I1807
sS'TREATED'
p1810
I1893
sS'SPOIL'
p1811
I2763
sS'COURTECY'
p1812
I0
sS'ZOMBIELAND'
p1813
I1118
sS'ASPECTS'
p1814
I1371
sS'JOY'
p1815
I2759
sS'GIRLFRIENDS'
p1816
I2259
sS'ACTING'
p1817
I1560
sS'THROUGH'
p1818
I1199
sS'HELEN'
p1819
I314
sS'AREAS'
p1820
I2515
sS'GONE'
p1821
I1488
sS'CRITIQUING'
p1822
I2582
sS'STREIGHT'
p1823
I288
sS'IDEA'
p1824
I1801
sS'BLINKING'
p1825
I409
sS'IA'
p1826
I157
sS'TEAM'
p1827
I808
sS'BUTT'
p1828
I1085
sS'SMALL'
p1829
I1587
sS'EASILY'
p1830
I1778
sS'BALLET'
p1831
I1317
sS'PUSS'
p1832
I728
sS'COWBOY'
p1833
I654
sS'REASONS'
p1834
I1403
sS'COULDNC'
p1835
I0
sS'DIMENSION'
p1836
I1344
sS'AWAKE'
p1837
I2067
sS'REBOOTS'
p1838
I446
sS'LUCKILY'
p1839
I2257
sS'WOBBLY'
p1840
I1268
sS'BEAUTIFULLY'
p1841
I2096
sS'PUSH'
p1842
I757
sS'COULDNT'
p1843
I2564
sS'SOCIETIES'
p1844
I415
sS'RELATIONSHIPS'
p1845
I14
sS'LADIES'
p1846
I1441
sS'HANDLE'
p1847
I907
sS'HANNA'
p1848
I364
sS'SINCE'
p1849
I1814
sS'CANDLE'
p1850
I827
sS'SOUNDING'
p1851
I2100
sS'CHUCKLING'
p1852
I1313
sS'THING'
p1853
I164
sS'TOWARDS'
p1854
I2191
sS'SPECTACULAR'
p1855
I530
sS'REENACTING'
p1856
I1265
sS'BELABORED'
p1857
I2634
sS'ACTRESS'
p1858
I1641
sS'EXCITEMENT'
p1859
I2978
sS'KEY'
p1860
I285
sS'EACH'
p1861
I234
sS'THOMPSON'
p1862
I1178
sS'INVADE'
p1863
I83
sS'PLOTLINE'
p1864
I1348
sS'ALIENS'
p1865
I969
sS'VOICES'
p1866
I861
sS'ISAAK'
p1867
I1758
sS'HARRIS'
p1868
I1837
sS'SUSPENSE'
p1869
I1108
sS'VOICED'
p1870
I1111
sS'TRANDY'
p1871
I0
sS'BARRELS'
p1872
I2741
sS'PICTURE'
p1873
I739
sS'COMEDIES'
p1874
I248
sS'CLASH'
p1875
I2668
sS'EXPOSED'
p1876
I2246
sS'EARLIER'
p1877
I1021
sS'HARDER'
p1878
I1591
sS'MENTIONES'
p1879
I2517
sS'QUESTIONS'
p1880
I2143
sS'TOSS'
p1881
I121
sS'SPLIT'
p1882
I533
sS'MOVES'
p1883
I1505
sS'CALLED'
p1884
I2273
sS'STORY'
p1885
I790
sS'TAYLOR'
p1886
I1490
sS'BEAT'
p1887
I2716
sS'SLUMBER'
p1888
I1282
sS'M'
p1889
I367
sS'BEAR'
p1890
I2719
sS'VERA'
p1891
I1575
sS'BITCH'
p1892
I2611
sS'MUSTVE'
p1893
I925
sS'JACKOFF'
p1894
I62
sS'BATTLE'
p1895
I772
sS'PURPOSLY'
p1896
I1359
sS'POLAR'
p1897
I1521
sS'FROM'
p1898
I2432
sS'DOCTOR'
p1899
I1732
sS'ENGAGED'
p1900
I1295
sS'FROG'
p1901
I2436
sS'ARM'
p1902
I2000
sS'RUSHED'
p1903
I2949
sS'ROLE'
p1904
I735
sS'GRATEFUL'
p1905
I770
sS'ENGAGES'
p1906
I1300
sS'SNIF'
p1907
I763
sS'BE'
p1908
I2208
sS'HAPPEND'
p1909
I2914
sS'AGES'
p1910
I1899
sS'JR'
p1911
I1224
sS'RANGES'
p1912
I655
sS'COMPARING'
p1913
I678
sS'PARENTS'
p1914
I2155
sS'PACING'
p1915
I1336
sS'PICKED'
p1916
I2374
sS'SCREEAMS'
p1917
I0
sS'PERFECTLY'
p1918
I2624
sS'BRINGING'
p1919
I35
sS'SHIP'
p1920
I720
sS'BA'
p1921
I2210
sS'DIFFERENCE'
p1922
I1580
sS'SIDNEY'
p1923
I910
sS'CLARKE'
p1924
I1709
sS'CHARLES'
p1925
I785
sS'GENERAL'
p1926
I1499
sS'ALIEN'
p1927
I2325
sS'ZOOMING'
p1928
I2307
sS'CHANNEL'
p1929
I1126
sS'UPSTAGED'
p1930
I831
sS'TERROR'
p1931
I783
sS'EXPOSITION'
p1932
I637
sS'BELEIVE'
p1933
I414
sS'ENDEVOUR'
p1934
I1180
sS'OVER'
p1935
I204
sS'MARY'
p1936
I1271
sS'TRILOGY'
p1937
I2937
sS'OFF'
p1938
I2848
sS'CONSIDER'
p1939
I1546
sS'CREATED'
p1940
I273
sS'NUDITY'
p1941
I715
sS'SCREEN'
p1942
I1223
sS'UNNECESSARY'
p1943
I622
sS'NOSTALGIC'
p1944
I2789
sS'FRAT'
p1945
I2601
sS'SITCOMS'
p1946
I940
sS'TUMBLER'
p1947
I1763
sS'FRAMED'
p1948
I2236
sS'FRAY'
p1949
I2503
sS'THIRTY'
p1950
I845
sS'PANNED'
p1951
I391
sS'POINTLESS'
p1952
I2947
sS'CAVE'
p1953
I2991
sS'EXPERIENCE'
p1954
I519
sS'ACTUALLY'
p1955
I1757
sS'LOWERED'
p1956
I2682
sS'SEQUENCES'
p1957
I2786
sS'GAMBIT'
p1958
I786
sS'UNFORTUNATELLY'
p1959
I2666
sS'GUESS'
p1960
I1824
sS'DEATH'
p1961
I1360
sS'SAYS'
p1962
I816
sS'CHAMPION'
p1963
I2062
sS'ZACH'
p1964
I71
sS'PORN'
p1965
I818
sS'DEPRESSED'
p1966
I1094
sS'BRINGS'
p1967
I737
sS'CHANGED'
p1968
I85
sS'BROTHER'
p1969
I1802
sS'TIED'
p1970
I2498
sS'HASBRO'
p1971
I1283
sS'RESIST'
p1972
I429
sS'CAMPY'
p1973
I558
sS'CHARECTER'
p1974
I1245
sS'WONDERFUL'
p1975
I1867
sS'RYAN'
p1976
I2359
sS'ENGLISH'
p1977
I1920
sS'DOOR'
p1978
I1660
sS'HASITANT'
p1979
I0
sS'GOSH'
p1980
I1642
sS'CHANGES'
p1981
I93
sS'TOMATO'
p1982
I2504
sS'TWIST'
p1983
I2810
sS'TRIED'
p1984
I1717
sS'GET'
p1985
I1183
sS'BEING'
p1986
I1349
sS'FATHER'
p1987
I781
sS'SHOCKING'
p1988
I1422
sS'JUM'
p1989
I1469
sS'ENDED'
p1990
I2725
sS'MELODRAMATIC'
p1991
I1338
sS'VIDEO'
p1992
I2373
sS'IPHONE'
p1993
I872
sS'WEATHER'
p1994
I2942
sS'PRETTY'
p1995
I1960
sS'SMURFS'
p1996
I2153
sS'WOULDNT'
p1997
I886
sS'SMURFY'
p1998
I1322
sS'SURVIVAL'
p1999
I1237
sS'SURPRISINGLY'
p2000
I2826
sS'AAAAA'
p2001
I1724
sS'GRAPES'
p2002
I269
sS'MINOR'
p2003
I1655
sS'AND'
p2004
I1101
sS'JURI'
p2005
I2030
sS'FUNNIED'
p2006
I0
sS'PREQUAL'
p2007
I2114
sS'TAKING'
p2008
I2770
sS'REMINDED'
p2009
I997
sS'BUDGET'
p2010
I2076
sS'EXPLORE'
p2011
I2398
sS'SATIRICAL'
p2012
I1936
sS'CONTRASTED'
p2013
I2023
sS'ANY'
p2014
I1115
sS'SUMMER'
p2015
I1346
sS'ANAGLYPHIC'
p2016
I1323
sS'RESPONSIBLY'
p2017
I351
sS'GEEK'
p2018
I2505
sS'WISHED'
p2019
I2344
sS'PERRY'
p2020
I1811
sS'EVERYWHERE'
p2021
I2317
sS'POPCORN'
p2022
I2412
sS'TACKY'
p2023
I1654
sS'WHERES'
p2024
I2121
sS'PIXAR'
p2025
I1835
sS'FASHION'
p2026
I332
sS'ARMY'
p2027
I112
sS'RATHER'
p2028
I1708
sS'NAILED'
p2029
I1892
sS'ARMS'
p2030
I113
sS'NOMINATED'
p2031
I379
sS'TALE'
p2032
I937
sS'MENTION'
p2033
I2535
sS'PACED'
p2034
I759
sS'JACKMAN'
p2035
I270
sS'APPLY'
p2036
I2425
sS'GRUMPY'
p2037
I1343
sS'TROUBLED'
p2038
I968
sS'TATUM'
p2039
I80
sS'SHOULDVE'
p2040
I3001
sS'MOMENTUM'
p2041
I64
sS'4'
p2042
I2059
sS'DEVOTED'
p2043
I778
sS'BLOW'
p2044
I2011
sS'NEEDS'
p2045
I1704
sS'BALL'
p2046
I2838
sS'HER'
p2047
I1454
sS'HES'
p2048
I1455
sS'ABSOLUTELY'
p2049
I682
sS'YOURE'
p2050
I555
sS'HEY'
p2051
I1524
sS'TIGHTLY'
p2052
I867
sS'ISOS'
p2053
I2017
sS'TRASURE'
p2054
I586
sS'YORK'
p2055
I2588
sS'FINDING'
p2056
I1914
sS'HEH'
p2057
I1465
sS'EXAMPLE'
p2058
I152
sS'MISTAKE'
p2059
I509
sS'DECIDES'
p2060
I2821
sS'OVERALLNEW'
p2061
I0
sS'LABYRINTH'
p2062
I2285
sS'WRITER'
p2063
I1958
sS'RESULTS'
p2064
I2324
sS'COUNTRYSIDE'
p2065
I1013
sS'DECIDED'
p2066
I431
sS'ATTACHMENT'
p2067
I2490
sS'PROBABLY'
p2068
I1086
sS'ENTIRELY'
p2069
I996
sS'GIVEN'
p2070
I1810
sS'PARADOX'
p2071
I2281
sS'ARCS'
p2072
I179
sS'FINALE'
p2073
I1528
sS'FOURTEEN'
p2074
I2585
sS'GONNA'
p2075
I1376
sS'SING'
p2076
I2045
sS'SWISS'
p2077
I2131
sS'SITUATION'
p2078
I1288
sS'HANDSOME'
p2079
I1476
sS'OWL'
p2080
I2935
sS'TERM'
p2081
I1827
sS'OWN'
p2082
I2518
sS'WICKEDLY'
p2083
I209
sS'SHOWED'
p2084
I1980
sS'FRIEDNS'
p2085
I1719
sS'MARLON'
p2086
I1236
sS'AWAY'
p2087
I440
sS'FAT'
p2088
I1574
sS'FAN'
p2089
I1577
sS'TYING'
p2090
I131
sS'ROCK'
p2091
I994
sS'SILVERLINING'
p2092
I2348
sS'COMEDY'
p2093
I2542
sS'ESSENTAIL'
p2094
I651
sS'BLOB'
p2095
I2486
sS'STYLE'
p2096
I1754
sS'SAFE'
p2097
I221
sS'GOTTA'
p2098
I1096
sS'SOUNDTRACK'
p2099
I1721
sS'WRITERS'
p2100
I171
sS'DIRTY'
p2101
I1484
sS'YOU'
p2102
I1518
sS'HE'
p2103
I2969
sS'DREADING'
p2104
I959
sS'EXPLODE'
p2105
I231
sS'POINTED'
p2106
I951
sS'ATTENTION'
p2107
I2015
sS'DUDES'
p2108
I2041
sS'HAMFISTED'
p2109
I2678
sS'PARTS'
p2110
I1759
sS'OBVIOUS'
p2111
I2465
sS'BAITING'
p2112
I208
sS'KNOCK'
p2113
I2175
sS'NEVER'
p2114
I72
sS'HORROR'
p2115
I1573
sS'GANRE'
p2116
I0
sS'THREE'
p2117
I481
sS'ZOMBIE'
p2118
I2213
sS'CHIPPER'
p2119
I1627
sS'HAVE'
p2120
I2653
sS'ORDER'
p2121
I2420
sS'DARE'
p2122
I1384
sS'THREW'
p2123
I488
sS'GREW'
p2124
I1969
sS'TERMS'
p2125
I449
sS'GAINS'
p2126
I1964
sS'OPENING'
p2127
I2758
sS'INSIGHT'
p2128
I2712
sS'DEFINATELLY'
p2129
I2139
sS'TURN'
p2130
I1039
sS'FOSTER'
p2131
I114
sS'NEIGHBOR'
p2132
I1434
sS'CATASTROPHIC'
p2133
I2735
sS'TYPES'
p2134
I190
sS'DANCING'
p2135
I1907
sS'REMEMBERED'
p2136
I2211
sS'HURTS'
p2137
I1229
sS'YEAH'
p2138
I1000
sS'GROWTH'
p2139
I2900
sS'YEAP'
p2140
I1002
sS'YEAR'
p2141
I1003
sS'BLANCHETTE'
p2142
I1057
sS'HURT'
p2143
I127
sS'JUNIOR'
p2144
I1173
sS'LANTERN'
p2145
I1791
sS'ON'
p2146
I1398
sS'OK'
p2147
I1425
sS'RORSCHACH'
p2148
I877
sS'OH'
p2149
I2464
sS'STILLER'
p2150
I1798
sS'OF'
p2151
I2466
sS'OD'
p2152
I2472
sS'MOMENT'
p2153
I2066
sS'HEARING'
p2154
I291
sS'KIMBERLY'
p2155
I1365
sS'DOES'
p2156
I2913
sS'BEDROOM'
p2157
I2693
sS'MAIN'
p2158
I2811
sS'OR'
p2159
I1439
sS'THUMBS'
p2160
I1710
sS'EXPLAINING'
p2161
I2294
sS'CHEEZY'
p2162
I2999
sS'ARMOR'
p2163
I2571
sS'BIASED'
p2164
I1411
sS'SURPASSED'
p2165
I1712
sS'TRAILERS'
p2166
I744
sS'LIEUTENANT'
p2167
I2919
sS'CHANCE'
p2168
I3005
sS'GOING'
p2169
I871
sS'BUGGED'
p2170
I570
sS'POWERFULS'
p2171
I0
sS'FEAR'
p2172
I825
sS'INSERTED'
p2173
I1139
sS'SATURDAY'
p2174
I1515
sS'HAPPY'
p2175
I690
sS'WEARING'
p2176
I403
sS'PASSES'
p2177
I1857
sS'TALENT'
p2178
I2405
sS'PIRATES'
p2179
I1450
sS'BORING'
p2180
I2640
sS'LILO'
p2181
I2658
sS'CHEAP'
p2182
I1162
sS'LOOKED'
p2183
I2680
sS'VERY'
p2184
I1342
sS'PAINFUL'
p2185
I2626
sS'PASSED'
p2186
I1869
sS'PHILLIP'
p2187
I1680
sS'CHARM'
p2188
I1924
sS'EXPENDABLES'
p2189
I2867
sS'LEADER'
p2190
I2916
sS'REALISING'
p2191
I1534
sS'PARENT'
p2192
I1221
sS'BUTSIGH'
p2193
I0
sS'ENTERTAINED'
p2194
I148
sS'DEPTHS'
p2195
I1922
sS'JUDGE'
p2196
I602
sS'RIDICILOUSLY'
p2197
I0
sS'CRUISE'
p2198
I2520
sS'RIPPLE'
p2199
I2726
sS'FOLLOW'
p2200
I1552
sS'UPS'
p2201
I46
sS'PRESUMED'
p2202
I1673
sS'DISTANCE'
p2203
I317
sS'PLOTS'
p2204
I2217
sS'DISTRICT'
p2205
I1066
sS'DEVELOPED'
p2206
I1177
sS'LOYALTY'
p2207
I182
sS'SERIOUSNESS'
p2208
I1530
sS'JORDAN'
p2209
I1878
sS'DETACHED'
p2210
I894
sS'OBNOXIOUS'
p2211
I1705
sS'FRIENDLY'
p2212
I2342
sS'HOPE'
p2213
I2709
sS'BRODYS'
p2214
I0
sS'HORSES'
p2215
I1657
sS'BORROWED'
p2216
I251
sS'CHOICE'
p2217
I791
sS'VAMPIRES'
p2218
I762
sS'PREPARE'
p2219
I2596
sS'MILA'
p2220
I1592
sS'SUNSETS'
p2221
I2394
sS'NO'
p2222
I727
sS'ACT'
p2223
I1435
sS'THROAT'
p2224
I2654
sS'NEW'
p2225
I63
sS'FOREWARNED'
p2226
I2284
sS'OPEN'
p2227
I2103
sS'DELIVERS'
p2228
I2696
sS'CHOKE'
p2229
I656
sS'MEETS'
p2230
I239
sS'SYMPHATY'
p2231
I576
sS'TIRE'
p2232
I2701
sS'CINEMATOGRAPHY'
p2233
I1516
sS'SPENDING'
p2234
I2245
sS'SCORPION'
p2235
I2703
sS'SCENES'
p2236
I319
sS'TILDA'
p2237
I569
sS'VAST'
p2238
I36
sS'EASY'
p2239
I587
sS'EARTH'
p2240
I384
sS'SINGING'
p2241
I2427
sS'HARSH'
p2242
I1305
sS'GAVE'
p2243
I590
sS'PLUMBER'
p2244
I2676
sS'FLASH'
p2245
I780
sS'BRILLIANT'
p2246
I846
sS'SETS'
p2247
I2856
sS'HIGHLY'
p2248
I2396
sS'WITTY'
p2249
I634
sS'EXPECTED'
p2250
I486
sS'OTHERS'
p2251
I2040
sS'NEED'
p2252
I2488
sS'PRINCESS'
p2253
I2592
sS'TYPICAL'
p2254
I946
sS'GIGGLE'
p2255
I2020
sS'TRANSPORTING'
p2256
I571
sS'DRAMAS'
p2257
I1193
sS'MEN'
p2258
I2501
sS'MET'
p2259
I74
sS'BOOK'
p2260
I2873
sS'BOOM'
p2261
I2878
sS'STALKER'
p2262
I1949
sS'EPIC'
p2263
I2204
sS'MEY'
p2264
I480
sS'WINGS'
p2265
I2174
sS'COMPLETE'
p2266
I1466
sS'FLAWS'
p2267
I1644
sS'ROLES'
p2268
I104
sS'RUSTLE'
p2269
I606
sS'WATCH'
p2270
I407
sS'EQUAL'
p2271
I2771
sS'WALK'
p2272
I2783
sS'DISEMPOWERED'
p2273
I1876
sS'CLEVERLY'
p2274
I1998
sS'FACE'
p2275
I2679
sS'ATTACKING'
p2276
I1184
sS'CERTIANLY'
p2277
I814
sS'WEIGHT'
p2278
I1796
sS'CURIOUS'
p2279
I2192
sS'FUCKING'
p2280
I2185
sS'F'
p2281
I2461
sS'WELL'
p2282
I1897
sS'WRIGHT'
p2283
I585
sS'BEHIND'
p2284
I1172
sS'POINTS'
p2285
I369
sS'TH'
p2286
I1564
sS'THEATRES'
p2287
I358
sS'REGARDLESS'
p2288
I1525
sS'COWBOYS'
p2289
I1401
sS'GENERALLY'
p2290
I1981
sS'AN'
p2291
I2807
sS'AS'
p2292
I1501
sS'AT'
p2293
I1502
sS'AW'
p2294
I1503
sS'ESSENTIAL'
p2295
I2184
sS'ROMANTIC'
p2296
I1479
sS'DEVELOPMENT'
p2297
I2110
sS'SEYFRIEDS'
p2298
I0
sS'THEYVE'
p2299
I1576
sS'UNLIKE'
p2300
I2813
sS'RIVALRY'
p2301
I2457
sS'COLOR'
p2302
I1254
sS'JOSEPH'
p2303
I683
sS'ACTORS'
p2304
I2288
sS'PRETTIER'
p2305
I2249
sS'THOROUGHLY'
p2306
I2130
sS'DIVERT'
p2307
I2665
sS'BLAST'
p2308
I794
sS'SUPER'
p2309
I650
sS'SCREENPLAY'
p2310
I329
sS'WHOSE'
p2311
I15
sS'SEEDED'
p2312
I2012
sS'BUDDY'
p2313
I16
sS'NAME'
p2314
I986
sS'HERES'
p2315
I1935
sS'NIGHTER'
p2316
I1603
sS'CYRUS'
p2317
I2946
sS'UNITING'
p2318
I2953
sS'FALL'
p2319
I1578
sS'ANNOYED'
p2320
I921
sS'PACKED'
p2321
I2742
sS'HIGHWAY'
p2322
I1821
sS'IMPROVED'
p2323
I2806
sS'MANY'
p2324
I1287
sS'INTERVIEWS'
p2325
I1970
sS'BOURNE'
p2326
I581
sS'STRENGHTS'
p2327
I1890
sS'METAPHORICALY'
p2328
I0
sS'HURRY'
p2329
I1670
sS'ATTRACT'
p2330
I160
sS'AROGANT'
p2331
I578
sS'PROTECTIVE'
p2332
I1698
sS'CRAZIEST'
p2333
I342
sS'ADAPT'
p2334
I259
sS'PERIOD'
p2335
I1256
sS'DREAD'
p2336
I1734
sS'DESCRIBING'
p2337
I2197
sS'WEIRD'
p2338
I851
sS'HAVENT'
p2339
I2364
sS'MINUTE'
p2340
I796
sS'DDINT'
p2341
I2276
sS'RANGER'
p2342
I1620
sS'MOMENTS'
p2343
I2862
sS'EXPLANATION'
p2344
I2632
sS'JUSTINE'
p2345
I2607
sS'SUPERB'
p2346
I2751
sS'ONLY'
p2347
I1174
sS'LAY'
p2348
I187
sS'STRESSED'
p2349
I89
sS'WOLVER'
p2350
I0
sS'JI'
p2351
I1228
sS'TO'
p2352
I1561
sS'ENEMY'
p2353
I1979
sS'EXAGGERATED'
p2354
I2221
sS'MOVIE'
p2355
I810
sS'ANYBODY'
p2356
I2126
sS'VERSE'
p2357
I1366
sS'FILMS'
p2358
I874
sS'BILLED'
p2359
I2456
sS'MARK'
p2360
I1266
sS'RUINS'
p2361
I424
sS'THATS'
p2362
I2416
sS'WHAT'
p2363
I1602
sS'ARRIVES'
p2364
I1990
sS'ATTEMPTING'
p2365
I2748
sS'CONSISTENCY'
p2366
I356
sS'TELEPORTATION'
p2367
I2016
sS'ARTSY'
p2368
I2738
sS'WHAY'
p2369
I1608
sS'VIEWING'
p2370
I2116
sS'NOBODYS'
p2371
I173
sS'WITCH'
p2372
I837
sS'ADVENTURE'
p2373
I1045
sS'MILITARY'
p2374
I90
sS'EVERYONES'
p2375
I1554
sS'STANDING'
p2376
I2429
sS'ESSENTIALLY'
p2377
I461
sS'NECESSARILY'
p2378
I1064
sS'FULLY'
p2379
I1782
sS'ELSE'
p2380
I2065
sS'MIDDLE'
p2381
I1679
sS'SATISFYING'
p2382
I1208
sS'FIVE'
p2383
I2882
sS'IMMEDIATELY'
p2384
I2885
sS'PREVIEW'
p2385
I118
sS'TECHNOLOGY'
p2386
I1301
sS'DEVELOPMENTS'
p2387
I2874
sS'EXTRA'
p2388
I855
sS'NEVERTHELESS'
p2389
I1954
sS'CATHERINE'
p2390
I2941
sS'DISAPPOINTMENTS'
p2391
I645
sS'35'
p2392
I2409
sS'HYPE'
p2393
I1983
sS'STEVE'
p2394
I1581
sS'LISTENING'
p2395
I1381
sS'UPBEAT'
p2396
I2797
sS'PULLED'
p2397
I943
sS'TELLS'
p2398
I341
sS'MARVEL'
p2399
I2319
sS'MILLION'
p2400
I1024
sS'CINEMATICLY'
p2401
I0
sS'FX'
p2402
I1817
sS'CROW'
p2403
I2368
sS'COMING'
p2404
I1723
sS'MUSICAL'
p2405
I561
sS'WHATEVER'
p2406
I2883
sS'HAIR'
p2407
I2899
sS'MACHENERY'
p2408
I0
sS'PORTION'
p2409
I3014
sS'LEVELS'
p2410
I279
sS'MOVING'
p2411
I282
sS'KNOW'
p2412
I2134
sS'HOME'
p2413
I2902
sS'MOVIEVOOVIE'
p2414
I0
sS'HOFFMANS'
p2415
I137
sS'CASTED'
p2416
I205
sS'FO'
p2417
I1727
sS'HEART'
p2418
I2418
sS'HIMSELF'
p2419
I2254
sS'GENUINE'
p2420
I345
sS'REMEMBER'
p2421
I934
sS'GARBAGE'
p2422
I2233
sS'POINT'
p2423
I2036
sS'WASTING'
p2424
I668
sS'BACKSTORY'
p2425
I2391
sS'LIVELINESS'
p2426
I2085
sS'HEARD'
p2427
I905
sS'SEQUELS'
p2428
I1750
sS'GORGEOUS'
p2429
I695
sS'WINDS'
p2430
I624
sS'WOMEN'
p2431
I2341
sS'IMMITATE'
p2432
I876
sS'MATERIAL'
p2433
I2534
sS'ROGAN'
p2434
I34
sS'BEGINS'
p2435
I316
sS'JET'
p2436
I1860
sS'SOLID'
p2437
I2072
sS'SUCKER'
p2438
I1766
sS'TOOTHS'
p2439
I1767
sS'WHICH'
p2440
I2663
sS'OBVIOUSLY'
p2441
I1913
sS'KEEPS'
p2442
I2713
sS'JIMMY'
p2443
I2232
sS'ABOVE'
p2444
I61
sS'8'
p2445
I1961
sS'CHAPELLE'
p2446
I466
sS'SUCKED'
p2447
I1776
sS'ALL'
p2448
I1545
sS'LIKE'
p2449
I2887
sS'LOST'
p2450
I2888
sS'SUCESS'
p2451
I2494
sS'ACRESSES'
p2452
I0
sS'WILLING'
p2453
I2529
sS'RADIO'
p2454
I383
sS'MARS'
p2455
I1269
sS'EXPRESSIONS'
p2456
I1553
sS'PAGE'
p2457
I2893
sS'WILLINGLY'
p2458
I724
sS'TOY'
p2459
I1826
sS'YO'
p2460
I1764
sS'TURNS'
p2461
I1787
sS'TOP'
p2462
I300
sS'TOM'
p2463
I307
sS'LINES'
p2464
I2509
sS'STUTTERING'
p2465
I222
sS'IAN'
p2466
I267
sS'GREEN'
p2467
I1514
sS'TOO'
p2468
I306
sS'HOLDING'
p2469
I2452
sS'WADE'
p2470
I1447
sS'TRYING'
p2471
I2699
sS'BROTHERS'
p2472
I740
sS'HUGE'
p2473
I918
sS'HIS'
p2474
I1489
sS'HIT'
p2475
I1963
sS'CHOSEN'
p2476
I2526
sS'VIOLENCE'
p2477
I1264
sS'HUGH'
p2478
I950
sS'ROBIN'
p2479
I2082
sS'ENJOYABLE'
p2480
I1011
sS'QUAID'
p2481
I2091
sS'DIDNT'
p2482
I2468
sS'MOTHER'
p2483
I559
sS'BECOME'
p2484
I3002
sS'BEACUSE'
p2485
I663
sS'HIM'
p2486
I1977
sS'NECESSARY'
p2487
I2886
sS'LEATHER'
p2488
I1191
sS'SPECTRE'
p2489
I1733
sS'PROJECT'
p2490
I320
sS'BANA'
p2491
I224
sS'STEALING'
p2492
I245
sS'WANTED'
p2493
I271
sS'THINKS'
p2494
I1035
sS'HELPED'
p2495
I2827
sS'CRAP'
p2496
I88
sS'FESTIVAL'
p2497
I2618
sS'APPIES'
p2498
I1389
sS'NEGATIVE'
p2499
I1187
sS'SAME'
p2500
I1312
sS'SETTING'
p2501
I734
sS'SURPRISE'
p2502
I741
sS'MAINTAINS'
p2503
I2583
sS'ANYMORE'
p2504
I191
sS'SOUNDPLANE'
p2505
I0
sS'CLICKING'
p2506
I539
sS'FOLLOWS'
p2507
I2177
sS'RELEASED'
p2508
I1083
sS'STORYLINE'
p2509
I1937
sS'USELESS'
p2510
I1912
sS'USUALLY'
p2511
I850
sS'DURING'
p2512
I1974
sS'MYERS'
p2513
I852
sS'WITH'
p2514
I1474
sS'OUTSIDERS'
p2515
I2756
sS'1'
p2516
I2854
sS'HAWK'
p2517
I2502
sS'LETTUCE'
p2518
I293
sS'FORGETTABLE'
p2519
I1527
sS'SMOOTH'
p2520
I2976
sS'CARLA'
p2521
I2372
sS'DEFINITELY'
p2522
I2287
sS'PLAYGROUND'
p2523
I2575
sS'HEMSWORTH'
p2524
I626
sS'NICHOLAS'
p2525
I2384
sS'2011'
p2526
I2531
sS'ROUTE'
p2527
I2598
sS'RAY'
p2528
I2109
sS'SECONDLY'
p2529
I1
sS'SHED'
p2530
I2894
sS'SHEE'
p2531
I2238
sS'UNBELIEVABLE'
p2532
I917
sS'MORIA'
p2533
I2514
sS'DUNNO'
p2534
I487
sS'FIGHTS'
p2535
I1898
sS'COMPANIES'
p2536
I42
sS'ACTOR'
p2537
I732
sS'ROBERTS'
p2538
I2643
sS'THEATERS'
p2539
I769
sS'ANIMATION'
p2540
I1774
sS'PROVOKING'
p2541
I2180
sS'SHES'
p2542
I2901
sS'BURDEN'
p2543
I2884
sS'WERENT'
p2544
I952
sS'AMY'
p2545
I2921
sS'LADY'
p2546
I1334
sS'PRINCE'
p2547
I2148
sS'FIRST'
p2548
I201
sS'LINKS'
p2549
I2473
sS'THERERE'
p2550
I1351
sS'VARIATION'
p2551
I3003
sS'THIS'
p2552
I2361
sS'LETS'
p2553
I2052
sS'EFFECTS'
p2554
I225
sS'CLEARING'
p2555
I2749
sS'DEBTORS'
p2556
I2241
sS'CROSSED'
p2557
I2383
sS'180'
p2558
I1866
sS'DIALOGUE'
p2559
I2060
sS'SCALE'
p2560
I2196
sS'STAR'
p2561
I1043
sS'ONSCREEN'
p2562
I1374
sS'HATS'
p2563
I3
sS'OCD'
p2564
I394
sS'STAY'
p2565
I3004
sS'FOUR'
p2566
I38
sS'FIRSTYOU'
p2567
I0
sS'STAB'
p2568
I3006
sS'AWARD'
p2569
I126
sS'FUN'
p2570
I2581
sS'VILLAIN'
p2571
I2477
sS'LATELY'
p2572
I2992
sS'HATE'
p2573
I12
sS'PULL'
p2574
I1477
sS'RUSH'
p2575
I2718
sS'LEAGE'
p2576
I517
sS'SANDWICH'
p2577
I2591
sS'BECOMES'
p2578
I2447
sS'PLAYED'
p2579
I510
sS'KILLING'
p2580
I1225
sS'REMAINS'
p2581
I2434
sS'SICK'
p2582
I2996
sS'LACKED'
p2583
I661
sS'OURSELVES'
p2584
I2193
sS'PRISCILLA'
p2585
I477
sS'EVERYTIME'
p2586
I1781
sS'WOW'
p2587
I2003
sS'RACHEL'
p2588
I220
sS'B'
p2589
I1886
sS'DISMISSED'
p2590
I1711
sS'RANGE'
p2591
I2223
sS'WON'
p2592
I2007
sS'JACK'
p2593
I32
sS'RANGO'
p2594
I2226
sS'SELFEXPLANATORY'
p2595
I0
sS'MORNING'
p2596
I705
sS'NOVELLA'
p2597
I1290
sS'DEVIATE'
p2598
I2292
sS'CHARATER'
p2599
I859
sS'FORCED'
p2600
I344
sS'EFFECT'
p2601
I2843
sS'MOOD'
p2602
I1404
sS'SELFCONTAINED'
p2603
I2800
sS'SCRAPING'
p2604
I1095
sS'NINTY'
p2605
I1358
sS'SWARZENEGER'
p2606
I0
sS'70S'
p2607
I2584
sS'SEQUEL'
p2608
I2961
sS'ECCLESTON'
p2609
I140
sS'TEMPTED'
p2610
I385
sS'DOGS'
p2611
I310
sS'STARING'
p2612
I2766
sS'DECENT'
p2613
I2794
sS'SHOCK'
p2614
I2356
sS'SHORT'
p2615
I1730
sS'POTENTIALLY'
p2616
I532
sS'GROUP'
p2617
I2764
sS'WORKS'
p2618
I2891
sS'PLUCKY'
p2619
I1475
sS'OTHERWISE'
p2620
I2777
sS'ASS'
p2621
I1822
sS'WORD'
p2622
I141
sS'WORE'
p2623
I142
sS'SWAN'
p2624
I18
sS'DELIGHTFUL'
p2625
I2546
sS'WORN'
p2626
I822
sS'EXCITED'
p2627
I2159
sS'RACIST'
p2628
I1461
sS'IMAGINE'
p2629
I1828
sS'ASK'
p2630
I1637
sS'LORD'
p2631
I23
sS'STILL'
p2632
I2745
sS'BEGINNING'
p2633
I1646
sS'BOYFRIEND'
p2634
I401
sS'SEEING'
p2635
I2231
sS'BRANDO'
p2636
I1523
sS'THOUGHT'
p2637
I2853
sS'DUO'
p2638
I2049
sS'FLIES'
p2639
I2864
sS'HERE'
p2640
I73
sS'GLARING'
p2641
I1779
sS'IDIOTIC'
p2642
I418
sS'SEW'
p2643
I2605
sS'FUZZY'
p2644
I2637
sS'HERS'
p2645
I474
sS'GENUINLY'
p2646
I856
sS'MARVELL'
p2647
I896
sS'FANTASTIC'
p2648
I97
sS'MATTER'
p2649
I321
sS'PREDICTABLE'
p2650
I312
sS'HORRIBLE'
p2651
I2753
sS'RUSSIAN'
p2652
I2260
sS'NARROW'
p2653
I1631
sS'ITS'
p2654
I1751
sS'DEVOTION'
p2655
I163
sS'RAINY'
p2656
I2279
sS'FIGHTER'
p2657
I2469
sS'MAINSTREAM'
p2658
I2345
sS'ROCKET'
p2659
I2860
sS'AGAIN'
p2660
I1509
sS'SWORDS'
p2661
I1513
sS'DESTINATION'
p2662
I665
sS'DRAW'
p2663
I2295
sS'CUT'
p2664
I2150
sS'PALETTES'
p2665
I2454
sS'OGRES'
p2666
I2289
sS'OPINION'
p2667
I2413
sS'PATH'
p2668
I77
sS'REALIZED'
p2669
I775
sS'HUNDRED'
p2670
I1870
sS'COMICS'
p2671
I1480
sS'BIG'
p2672
I2165
sS'TOLERATE'
p2673
I2075
sS'KILLERS'
p2674
I1186
sS'SERIES'
p2675
I241
sS'BIT'
p2676
I2173
sS'TOLD'
p2677
I67
sS'POOR'
p2678
I1520
sS'POOP'
p2679
I1522
sS'FORTUNALLY'
p2680
I0
sS'WARY'
p2681
I122
sS'WEAK'
p2682
I453
sS'DOLLAR'
p2683
I1549
sS'WARS'
p2684
I125
sS'HOLLOW'
p2685
I2042
sS'WARN'
p2686
I750
sS'THEIR'
p2687
I2623
sS'HEROISM'
p2688
I2528
sS'BUY'
p2689
I2959
sS'PRETENDING'
p2690
I1972
sS'FORWARD'
p2691
I2251
sS'POOH'
p2692
I1533
sS'HOLD'
p2693
I136
sS'THINK'
p2694
I195
sS'POOL'
p2695
I258
sS'RIGHT'
p2696
I615
sS'SUPPORDTING'
p2697
I0
sS'BLOWN'
p2698
I2606
sS'GRADE'
p2699
I289
sS'AWEFUL'
p2700
I1032
sS'INCLUSION'
p2701
I1442
sS'BUILD'
p2702
I2161
sS'STARTED'
p2703
I2446
sS'ENOUGH'
p2704
I1467
sS'SOMETIME'
p2705
I1286
sS'NOTHING'
p2706
I1927
sS'HYSTERICAL'
p2707
I1902
sS'GRADS'
p2708
I297
sS'FUNNY'
p2709
I2828
sS'MOTIVATION'
p2710
I1895
sS'UNINVITED'
p2711
I172
sS'CLINT'
p2712
I1706
sS'LIE'
p2713
I1905
sS'FAVORITE'
p2714
I1430
sS'LACK'
p2715
I27
sS'HELLBOY'
p2716
I965
sS'DEMON'
p2717
I2089
sS'LIKELY'
p2718
I299
sS'CLEANING'
p2719
I2119
sS'EXP'
p2720
I1939
sS'HILARIOUS'
p2721
I2576
sS'EARTHLINGS'
p2722
I2539
sS'STEELS'
p2723
I2046
sS'BEST'
p2724
I435
sS'MUST'
p2725
I138
sS'TERRITORY'
p2726
I1388
sS'OLDER'
p2727
I2124
sS'YELLS'
p2728
I2608
sS'CINEMATIC'
p2729
I357
sS'DEPP'
p2730
I505
sS'PICK'
p2731
I387
sS'QUIRKY'
p2732
I1104
sS'WENT'
p2733
I235
sS'PULLMAN'
p2734
I1448
sS'MAGIC'
p2735
I2353
sS'COULD'
p2736
I789
sS'WINNING'
p2737
I2527
sS'THO'
p2738
I557
sS'127'
p2739
I2401
sS'THE'
p2740
I560
sS'RUSSEL'
p2741
I1506
sS'GEORGE'
p2742
I255
sS'SEEMED'
p2743
I2333
sS'CRAZY'
p2744
I897
sS'NIL'
p2745
I542
sS'FAILER'
p2746
I2407
sS'SPREADING'
p2747
I1443
sS'WELCOME'
p2748
I1412
sS'BLAME'
p2749
I1226
sS'FAILED'
p2750
I2433
sS'KIN'
p2751
I284
sS'KIM'
p2752
I1916
sS'SPOOF'
p2753
I2351
sS'TORTURING'
p2754
I709
sS'INSANE'
p2755
I729
sS'PULSE'
p2756
I53
sS'PLAYS'
p2757
I2377
sS'LIGHT'
p2758
I2508
sS'JABS'
p2759
I1181
sS'PLEASENT'
p2760
I2346
sS'RATE'
p2761
I2378
sS'EASTWOOD'
p2762
I106
sS'LISTING'
p2763
I967
sS'QUICK'
p2764
I809
sS'FORMULA'
p2765
I1018
sS'SHOULD'
p2766
I2705
sS'ROUND'
p2767
I812
sS'ROLLER'
p2768
I2796
sS'REALLY'
p2769
I1808
sS'NONE'
p2770
I1676
sS'WOUDLNT'
p2771
I2137
sS'INTRODUCTION'
p2772
I1862
sS'PERFORMANCES'
p2773
I1931
sS'ADORABLE'
p2774
I638
sS'FANS'
p2775
I2006
sS'NINE'
p2776
I1685
sS'TERRIFIED'
p2777
I1420
sS'THEREFORE'
p2778
I116
sS'MALE'
p2779
I1690
sS'TALES'
p2780
I253
sS'PLAYOFFS'
p2781
I2593
sS'CONGITION'
p2782
I0
sS'COMMERCIALS'
p2783
I2795
sS'BLANCHETT'
p2784
I1149
sS'REASON'
p2785
I1825
sS'GOOFY'
p2786
I1784
sS'GORSKI'
p2787
I475
sS'LOVER'
p2788
I2646
sS'POSITIVE'
p2789
I864
sS'CENTURY'
p2790
I2087
sS'DISAPPOINTING'
p2791
I2090
sS'BEEN'
p2792
I2243
sS'DRAGON'
p2793
I1113
sS'LAURENCE'
p2794
I2380
sS'MONUMENTAL'
p2795
I2275
sS'EDWARD'
p2796
I20
sS'PREMISE'
p2797
I2018
sS'BUZZ'
p2798
I2029
sS'MAYONNAISE'
p2799
I2291
sS'THEN'
p2800
I218
sS'THEM'
p2801
I219
sS'AIRBENDER'
p2802
I1748
sS'TITLE'
p2803
I847
sS'DVD'
p2804
I2308
sS'CHANNELING'
p2805
I1925
sS'USE'
p2806
I2430
sS'WHO'
p2807
I2669
sS'EXCEPT'
p2808
I1364
sS'THEY'
p2809
I226
sS'CHURCH'
p2810
I2898
sS'ADULTS'
p2811
I1260
sS'IMAGINING'
p2812
I947
sS'ENTERS'
p2813
I455
sS'OLD'
p2814
I616
sS'DYING'
p2815
I726
sS'SEPARATE'
p2816
I1526
sS'WISKERS'
p2817
I1293
sS'AGAO'
p2818
I2480
sS'WHOS'
p2819
I2053
sS'PERCY'
p2820
I1164
sS'WHETHER'
p2821
I2973
sS'PROTAGONIST'
p2822
I647
sS'DAMN'
p2823
I2055
sS'SCHWARZANEGGER'
p2824
I0
sS'NEARLY'
p2825
I2722
sS'ACROSS'
p2826
I1218
sS'WATERED'
p2827
I2358
sS'FREE'
p2828
I264
sS'FRED'
p2829
I265
sS'DRAMA'
p2830
I2222
sS'SKIPPING'
p2831
I144
sS'DIRECTORS'
p2832
I1539
sS'STORIES'
p2833
I2980
sS'BETWEEN'
p2834
I1216
sS'CREATORS'
p2835
I2857
sS'FU'
p2836
I1008
sS'CLOSET'
p2837
I2747
sS'TRAVEL'
p2838
I944
sS'BILL'
p2839
I2074
sS'3D'
p2840
I2387
sS'COMPLETELY'
p2841
I2586
sS'NINETY'
p2842
I103
sS'THREAT'
p2843
I2954
sS'JOKE'
p2844
I2769
sS'SIDE'
p2845
I236
sS'MORE'
p2846
I2390
sS'CHRISTINA'
p2847
I1385
sS'ASSERTING'
p2848
I1771
sS'OLDIES'
p2849
I836
sS'WORST'
p2850
I1464
sS'ACTINGS'
p2851
I2195
sS'AMAZINGLY'
p2852
I679
sS'INTERESTINGLY'
p2853
I2178
sS'VERDICT'
p2854
I2363
sS'SEEN'
p2855
I338
sS'EYE'
p2856
I1222
sS'BORED'
p2857
I2252
sS'SHREK'
p2858
I2603
sS'BUNNY'
p2859
I230
sS'HOOD'
p2860
I1819
sS'BENEFITS'
p2861
I1832
sS'WORKED'
p2862
I495
sS'CONNECTION'
p2863
I2028
sS'ASSURE'
p2864
I2772
sS'SUNDANCE'
p2865
I914
sS'LOBBY'
p2866
I2845
sS'PERFECT'
p2867
I2522
sS'TROWN'
p2868
I2524
sS'OKAY'
p2869
I1716
sS'RUDE'
p2870
I1718
sS'WATCHING'
p2871
I911
sS'CHARLIE'
p2872
I554
sS'DEFINATELY'
p2873
I538
sS'ALIANS'
p2874
I1697
sS'PIECES'
p2875
I2475
sS'ANGSTY'
p2876
I2467
sS'ASLEEP'
p2877
I1203
sS'HACTOR'
p2878
I0
sS'COUNTS'
p2879
I107
sS'MAGICAL'
p2880
I1335
sS'WORTH'
p2881
I26
sS'FLOP'
p2882
I366
sS'ALWAYS'
p2883
I1392
sS'SNYDER'
p2884
I2951
sS'WONDERING'
p2885
I2256
sS'WAITING'
p2886
I2381
sS'YEARS'
p2887
I954
sS'RULES'
p2888
I2105
sS'ARE'
p2889
I2649
sS'WHATSOEVER'
p2890
I21
sS'SUCKERS'
p2891
I839
sS'LOUD'
p2892
I283
sS'HUDGENS'
p2893
I2968
sS'KEVIN'
p2894
I1116
sS'ARO'
p2895
I2001
sS'WILLY'
p2896
I2792
sS'LOVED'
p2897
I2638
sS'DEAN'
p2898
I675
sS'SLASH'
p2899
I2202
sS'DEAL'
p2900
I617
sS'HEALTHY'
p2901
I2077
sS'WHEN'
p2902
I730
sS'NIGHT'
p2903
I613
sS'WHISPERING'
p2904
I2787
sS'TOOK'
p2905
I311
sS'DEAD'
p2906
I621
sS'ASTOUNDINGLY'
p2907
I183
sS'TIL'
p2908
I733
sS'FLONG'
p2909
I0
sS'ATTITUDE'
p2910
I1194
sS'OLIVIA'
p2911
I1770
sS'LOVES'
p2912
I2645
sS'ACTION'
p2913
I1630
sS'DEAR'
p2914
I625
sS'TIE'
p2915
I738
sS'BY'
p2916
I868
sS'THRILLER'
p2917
I1171
sS'HIDING'
p2918
I2442
sS'BATTLEFIELD'
p2919
I614
sS'EMMA'
p2920
I60
sS'GUYS'
p2921
I1357
sS'GIVE'
p2922
I154
sS'HUMAN'
p2923
I572
sS'THEMSELVES'
p2924
I2441
sS'STOCK'
p2925
I2495
sS'EVENTS'
p2926
I1318
sS'VISUALLY'
p2927
I1797
sS'BUILT'
p2928
I1906
sS'NAVI'
p2929
I240
sS'PREMIERE'
p2930
I2839
sS'CLEAR'
p2931
I541
sS'ENGAGING'
p2932
I1803
sS'NOTICABLE'
p2933
I233
sS'PLANNING'
p2934
I2692
sS'T'
p2935
I2382
sS'YOUVE'
p2936
I2497
sS'SILVESTRE'
p2937
I98
sS'INTERNATIONAL'
p2938
I1145
sS'GOER'
p2939
I830
sS'EXPERIENCED'
p2940
I2552
sS'ESPECIALLY'
p2941
I1141
sS'BORDERLINE'
p2942
I2569
sS'CRAIG'
p2943
I1103
sS'APPRECIATED'
p2944
I594
sS'LATE'
p2945
I2339
sS'MATTERS'
p2946
I2169
sS'KATRINA'
p2947
I1483
sS'EXPERIENCES'
p2948
I2227
sS'BIRTH'
p2949
I564
sS'WISH'
p2950
I2974
sS'CHARA'
p2951
I2237
sS'MACHETE'
p2952
I1928
sS'RELUCTANT'
p2953
I1557
sS'SOON'
p2954
I676
sS'OVERALL'
p2955
I2717
sS'THOSE'
p2956
I1277
sS'SOUND'
p2957
I1568
sS'HUMOR'
p2958
I629
sS'NOBODY'
p2959
I353
sS'UPSET'
p2960
I2677
sS'ASIDE'
p2961
I568
sS'LAKE'
p2962
I2870
sS'DOWN'
p2963
I670
sS'SMACKING'
p2964
I266
sS'WASTE'
p2965
I2798
sS'KRASINSKI'
p2966
I646
sS'NOWADAYS'
p2967
I2572
sS'MINI'
p2968
I330
sS'DIRECTED'
p2969
I1182
sS'KINF'
p2970
I1884
sS'KIND'
p2971
I1885
sS'ROB'
p2972
I766
sS'INFERRED'
p2973
I368
sS'MOTION'
p2974
I1038
sS'TRAIN'
p2975
I2453
sS'SOMETHING'
p2976
I2470
sS'DOSENT'
p2977
I2428
sS'THINKIN'
p2978
I1308
sS'THERES'
p2979
I92
sS'SCARY'
p2980
I2594
sS'HARELSON'
p2981
I0
sS'TRAPS'
p2982
I1331
sS'KILLER'
p2983
I974
sS'KINDS'
p2984
I3000
sS'EXCELLENT'
p2985
I132
sS'THOUGHTS'
p2986
I551
sS'LINERS'
p2987
I2299
sS'DEPRESSING'
p2988
I2635
sS'JEALOUS'
p2989
I547
sS'RELATABLE'
p2990
I448
sS'DEFIANCE'
p2991
I2782
sS'INSTEAD'
p2992
I2492
sS'INCLUDE'
p2993
I1677
sS'KILLED'
p2994
I981
sS'COBRA'
p2995
I1156
sS'GUTS'
p2996
I2034
sS'BREATH'
p2997
I1267
sS'US'
p2998
I2268
sS'UM'
p2999
I529
sS'REMINDS'
p3000
I2964
sS'UH'
p3001
I2271
sS'SADISTIC'
p3002
I1436
sS'COMEDIAN'
p3003
I506
sS'HASNT'
p3004
I1510
sS'MODERN'
p3005
I333
sS'STOP'
p3006
I2496
sS'CROSS'
p3007
I2831
sS'SYMPHATIZE'
p3008
I0
sS'WHILE'
p3009
I2078
sS'BATTER'
p3010
I2513
sS'VOLUNTARILY'
p3011
I1393
sS'CGI'
p3012
I1975
sS'WHATS'
p3013
I2347
sS'REFERENCE'
p3014
I2691
sS'1981'
p3015
I2599
sS'WROTE'
p3016
I1985
sS'TRICKS'
p3017
I1537
sS'GRAT'
p3018
I2728
sS'SCENE'
p3019
I2609
sS'FAST'
p3020
I1452
sS'QUITE'
p3021
I79
sS'DEPENDS'
p3022
I430
sS'CONCERNS'
p3023
I2662
sS'INVOLVEMENT'
p3024
I2549
sS'SUPERPOWER'
p3025
I776
sS'TACTIC'
p3026
I593
sS'CLOSE'
p3027
I1999
sS'KINETIC'
p3028
I1205
sS'HISTORY'
p3029
I1692
sS'ALLRIGHT'
p3030
I1855
sS'CONTRIVED'
p3031
I1729
sS'CHANNING'
p3032
I2936
sS'FEE'
p3033
I2431
sS'IMIGAE'
p3034
I0
sS'THEYR'
p3035
I807
sS'DIES'
p3036
I1409
sS'MIND'
p3037
I334
sS'CUZ'
p3038
I473
sS'REMINISCE'
p3039
I2706
sS'FEW'
p3040
I2438
sS'FIGHT'
p3041
I681
sS'DOESNT'
p3042
I2547
sS'WEAR'
p3043
I456
sS'KIDDING'
p3044
I2093
sS'DIED'
p3045
I1765
sS'STANDS'
p3046
I1809
sS'ADEQUATLY'
p3047
I1632
sS'WALKING'
p3048
I2744
sS'FIGURED'
p3049
I2768
sS'TALENTED'
p3050
I1238
sS'RADIATION'
p3051
I2830
sS'WIN'
p3052
I2419
sS'ABLE'
p3053
I2659
sS'FAILURE'
p3054
I1143
sS'WIT'
p3055
I2179
sS'TALK'
p3056
I2145
sS'USING'
p3057
I3011
sS'CATAPULT'
p3058
I1871
sS'SUCESSFUL'
p3059
I2376
sS'THUMPING'
p3060
I3007
sS'POLYURETHANE'
p3061
I2714
sS'FREEDOM'
p3062
I2449
sS'STATE'
p3063
I2752
sS'DRIVE'
p3064
I1148
sS'WRITTEN'
p3065
I261
sS'DOUBT'
p3066
I2248
sS'JACOB'
p3067
I33
sS'FART'
p3068
I2499
sS'DAD'
p3069
I2532
sS'COMPARISON'
p3070
I2445
sS'ROUNDED'
p3071
I1739
sS'OBSERVER'
p3072
I2917
sS'48'
p3073
I2988
sS'BRING'
p3074
I2690
sS'LOTS'
p3075
I2681
sS'DANCERS'
p3076
I1352
sS'EXACT'
p3077
I795
sS'DAY'
p3078
I2541
sS'DESTRUCTION'
p3079
I1747
sS'EVENTUALLY'
p3080
I1292
sS'PLAY'
p3081
I1917
sS'BALLS'
p3082
I2459
sS'RUSSELL'
p3083
I862
sS'MOSTLY'
p3084
I1076
sS'CLICHES'
p3085
I2511
sS'SEASON'
p3086
I1078
sS'CLAPPING'
p3087
I1635
sS'BRAD'
p3088
I2841
sS'MOST'
p3089
I1923
sS'FEST'
p3090
I3012
sS'U'
p3091
I1540
sS'PLAN'
p3092
I2229
sS'MIXED'
p3093
I623
sS'BUYING'
p3094
I2707
sS'CLICHED'
p3095
I2550
sS'SELL'
p3096
I1904
sS'CREEPIEST'
p3097
I1989
sS'COMMENTARY'
p3098
I1915
sS'MICHAEL'
p3099
I2357
sS'FREAKY'
p3100
I834
sS'SWINTON'
p3101
I1025
sS'HEARTBREAKING'
p3102
I922
sS'WOKE'
p3103
I2058
sS'DROVE'
p3104
I1058
sS'UNDEVELOPED'
p3105
I1362
sS'GRACES'
p3106
I2379
sS'EMILY'
p3107
I2320
s.